

Microchip MPLAB XC8 Assembler V2.36 build 20220127204148 
                                                                                               Wed Jan 14 21:30:31 2026

Microchip MPLAB XC8 C Compiler v2.36 (Free license) build 20220127204148 Og1 
     1                           	processor	16F877A
     2                           	pagewidth 120
     3                           	opt	flic
     4                           	psect	idataCOMMON,global,class=CODE,delta=2,noexec
     5                           	psect	idataBANK0,global,class=CODE,delta=2,noexec
     6                           	psect	strings,global,class=STRING,delta=2,noexec
     7                           	psect	cinit,global,class=CODE,merge=1,delta=2
     8                           	psect	bssCOMMON,global,class=COMMON,space=1,delta=1,noexec
     9                           	psect	dataCOMMON,global,class=COMMON,space=1,delta=1,noexec
    10                           	psect	bssBANK0,global,class=BANK0,space=1,delta=1,noexec
    11                           	psect	dataBANK0,global,class=BANK0,space=1,delta=1,noexec
    12                           	psect	cstackCOMMON,global,class=COMMON,space=1,delta=1,noexec
    13                           	psect	cstackBANK0,global,class=BANK0,space=1,delta=1,noexec
    14                           	psect	maintext,global,class=CODE,split=1,delta=2
    15                           	psect	text1,local,class=CODE,merge=1,delta=2
    16                           	psect	text2,local,class=CODE,merge=1,delta=2,group=1
    17                           	psect	text3,local,class=CODE,merge=1,delta=2
    18                           	psect	text4,local,class=CODE,merge=1,delta=2,group=1
    19                           	psect	text5,local,class=CODE,merge=1,delta=2,group=1
    20                           	psect	text6,local,class=CODE,merge=1,delta=2,group=1
    21                           	psect	text7,local,class=CODE,merge=1,delta=2
    22                           	psect	text8,local,class=CODE,merge=1,delta=2
    23                           	psect	text9,local,class=CODE,merge=1,delta=2
    24                           	psect	text10,local,class=CODE,merge=1,delta=2
    25                           	psect	text11,local,class=CODE,merge=1,delta=2
    26                           	psect	text12,local,class=CODE,merge=1,delta=2
    27                           	psect	text13,local,class=CODE,merge=1,delta=2
    28                           	psect	text14,local,class=CODE,merge=1,delta=2
    29                           	psect	text15,local,class=CODE,merge=1,delta=2
    30                           	psect	text16,local,class=CODE,merge=1,delta=2
    31                           	psect	text17,local,class=CODE,merge=1,delta=2,group=1
    32                           	psect	text18,local,class=CODE,merge=1,delta=2,group=1
    33                           	psect	text19,local,class=CODE,merge=1,delta=2
    34                           	psect	text20,local,class=CODE,merge=1,delta=2
    35                           	psect	text21,local,class=CODE,merge=1,delta=2
    36                           	psect	text22,local,class=CODE,merge=1,delta=2
    37                           	psect	text23,local,class=CODE,merge=1,delta=2
    38                           	psect	text24,local,class=CODE,merge=1,delta=2
    39                           	psect	intentry,global,class=CODE,delta=2
    40                           	psect	config,global,abs,ovrld,class=CONFIG,space=4,delta=2,noexec
    41                           	dabs	1,0x7E,2
    42  0000                     
    43                           ; Generated 12/10/2023 GMT
    44                           ; 
    45                           ; Copyright © 2023, Microchip Technology Inc. and its subsidiaries ("Microchip")
    46                           ; All rights reserved.
    47                           ; 
    48                           ; This software is developed by Microchip Technology Inc. and its subsidiaries ("Microch
      +                          ip").
    49                           ; 
    50                           ; Redistribution and use in source and binary forms, with or without modification, are
    51                           ; permitted provided that the following conditions are met:
    52                           ; 
    53                           ;     1. Redistributions of source code must retain the above copyright notice, this lis
      +                          t of
    54                           ;        conditions and the following disclaimer.
    55                           ; 
    56                           ;     2. Redistributions in binary form must reproduce the above copyright notice, this 
      +                          list
    57                           ;        of conditions and the following disclaimer in the documentation and/or other
    58                           ;        materials provided with the distribution. Publication is not required when
    59                           ;        this file is used in an embedded application.
    60                           ; 
    61                           ;     3. Microchip's name may not be used to endorse or promote products derived from th
      +                          is
    62                           ;        software without specific prior written permission.
    63                           ; 
    64                           ; THIS SOFTWARE IS PROVIDED BY MICROCHIP "AS IS" AND ANY EXPRESS OR IMPLIED WARRANTIES,
    65                           ; INCLUDING, BUT NOT LIMITED TO, THE IMPLIED WARRANTIES OF MERCHANTABILITY AND FITNESS F
      +                          OR
    66                           ; PURPOSE ARE DISCLAIMED.  IN NO EVENT SHALL MICROCHIP BE LIABLE FOR ANY DIRECT, INDIREC
      +                          T,
    67                           ; INCIDENTAL, SPECIAL, EXEMPLARY, OR CONSEQUENTIAL DAMAGES (INCLUDING BUT NOT LIMITED TO
    68                           ; PROCUREMENT OF SUBSTITUTE GOODS OR SERVICES; LOSS OF USE, DATA OR PROFITS; OR BUSINESS
    69                           ; INTERRUPTION) HOWSOEVER CAUSED AND ON ANY THEORY OF LIABILITY, WHETHER IN CONTRACT, ST
      +                          RICT
    70                           ; LIABILITY, OR TORT (INCLUDING NEGLIGENCE OR OTHERWISE) ARISING IN ANY WAY OUT OF THE U
      +                          SE OF
    71                           ; THIS SOFTWARE, EVEN IF ADVISED OF THE POSSIBILITY OF SUCH DAMAGE.
    72                           ; 
    73                           ; 
    74                           ; Code-generator required, PIC16F877A Definitions
    75                           ; 
    76                           ; SFR Addresses
    77  0000                     	;# 
    78  0001                     	;# 
    79  0002                     	;# 
    80  0003                     	;# 
    81  0004                     	;# 
    82  0005                     	;# 
    83  0006                     	;# 
    84  0007                     	;# 
    85  0008                     	;# 
    86  0009                     	;# 
    87  000A                     	;# 
    88  000B                     	;# 
    89  000C                     	;# 
    90  000D                     	;# 
    91  000E                     	;# 
    92  000E                     	;# 
    93  000F                     	;# 
    94  0010                     	;# 
    95  0011                     	;# 
    96  0012                     	;# 
    97  0013                     	;# 
    98  0014                     	;# 
    99  0015                     	;# 
   100  0015                     	;# 
   101  0016                     	;# 
   102  0017                     	;# 
   103  0018                     	;# 
   104  0019                     	;# 
   105  001A                     	;# 
   106  001B                     	;# 
   107  001B                     	;# 
   108  001C                     	;# 
   109  001D                     	;# 
   110  001E                     	;# 
   111  001F                     	;# 
   112  0081                     	;# 
   113  0085                     	;# 
   114  0086                     	;# 
   115  0087                     	;# 
   116  0088                     	;# 
   117  0089                     	;# 
   118  008C                     	;# 
   119  008D                     	;# 
   120  008E                     	;# 
   121  0091                     	;# 
   122  0092                     	;# 
   123  0093                     	;# 
   124  0094                     	;# 
   125  0098                     	;# 
   126  0099                     	;# 
   127  009C                     	;# 
   128  009D                     	;# 
   129  009E                     	;# 
   130  009F                     	;# 
   131  010C                     	;# 
   132  010D                     	;# 
   133  010E                     	;# 
   134  010F                     	;# 
   135  018C                     	;# 
   136  018D                     	;# 
   137  0000                     	;# 
   138  0001                     	;# 
   139  0002                     	;# 
   140  0003                     	;# 
   141  0004                     	;# 
   142  0005                     	;# 
   143  0006                     	;# 
   144  0007                     	;# 
   145  0008                     	;# 
   146  0009                     	;# 
   147  000A                     	;# 
   148  000B                     	;# 
   149  000C                     	;# 
   150  000D                     	;# 
   151  000E                     	;# 
   152  000E                     	;# 
   153  000F                     	;# 
   154  0010                     	;# 
   155  0011                     	;# 
   156  0012                     	;# 
   157  0013                     	;# 
   158  0014                     	;# 
   159  0015                     	;# 
   160  0015                     	;# 
   161  0016                     	;# 
   162  0017                     	;# 
   163  0018                     	;# 
   164  0019                     	;# 
   165  001A                     	;# 
   166  001B                     	;# 
   167  001B                     	;# 
   168  001C                     	;# 
   169  001D                     	;# 
   170  001E                     	;# 
   171  001F                     	;# 
   172  0081                     	;# 
   173  0085                     	;# 
   174  0086                     	;# 
   175  0087                     	;# 
   176  0088                     	;# 
   177  0089                     	;# 
   178  008C                     	;# 
   179  008D                     	;# 
   180  008E                     	;# 
   181  0091                     	;# 
   182  0092                     	;# 
   183  0093                     	;# 
   184  0094                     	;# 
   185  0098                     	;# 
   186  0099                     	;# 
   187  009C                     	;# 
   188  009D                     	;# 
   189  009E                     	;# 
   190  009F                     	;# 
   191  010C                     	;# 
   192  010D                     	;# 
   193  010E                     	;# 
   194  010F                     	;# 
   195  018C                     	;# 
   196  018D                     	;# 
   197  0000                     	;# 
   198  0001                     	;# 
   199  0002                     	;# 
   200  0003                     	;# 
   201  0004                     	;# 
   202  0005                     	;# 
   203  0006                     	;# 
   204  0007                     	;# 
   205  0008                     	;# 
   206  0009                     	;# 
   207  000A                     	;# 
   208  000B                     	;# 
   209  000C                     	;# 
   210  000D                     	;# 
   211  000E                     	;# 
   212  000E                     	;# 
   213  000F                     	;# 
   214  0010                     	;# 
   215  0011                     	;# 
   216  0012                     	;# 
   217  0013                     	;# 
   218  0014                     	;# 
   219  0015                     	;# 
   220  0015                     	;# 
   221  0016                     	;# 
   222  0017                     	;# 
   223  0018                     	;# 
   224  0019                     	;# 
   225  001A                     	;# 
   226  001B                     	;# 
   227  001B                     	;# 
   228  001C                     	;# 
   229  001D                     	;# 
   230  001E                     	;# 
   231  001F                     	;# 
   232  0081                     	;# 
   233  0085                     	;# 
   234  0086                     	;# 
   235  0087                     	;# 
   236  0088                     	;# 
   237  0089                     	;# 
   238  008C                     	;# 
   239  008D                     	;# 
   240  008E                     	;# 
   241  0091                     	;# 
   242  0092                     	;# 
   243  0093                     	;# 
   244  0094                     	;# 
   245  0098                     	;# 
   246  0099                     	;# 
   247  009C                     	;# 
   248  009D                     	;# 
   249  009E                     	;# 
   250  009F                     	;# 
   251  010C                     	;# 
   252  010D                     	;# 
   253  010E                     	;# 
   254  010F                     	;# 
   255  018C                     	;# 
   256  018D                     	;# 
   257  0000                     	;# 
   258  0001                     	;# 
   259  0002                     	;# 
   260  0003                     	;# 
   261  0004                     	;# 
   262  0005                     	;# 
   263  0006                     	;# 
   264  0007                     	;# 
   265  0008                     	;# 
   266  0009                     	;# 
   267  000A                     	;# 
   268  000B                     	;# 
   269  000C                     	;# 
   270  000D                     	;# 
   271  000E                     	;# 
   272  000E                     	;# 
   273  000F                     	;# 
   274  0010                     	;# 
   275  0011                     	;# 
   276  0012                     	;# 
   277  0013                     	;# 
   278  0014                     	;# 
   279  0015                     	;# 
   280  0015                     	;# 
   281  0016                     	;# 
   282  0017                     	;# 
   283  0018                     	;# 
   284  0019                     	;# 
   285  001A                     	;# 
   286  001B                     	;# 
   287  001B                     	;# 
   288  001C                     	;# 
   289  001D                     	;# 
   290  001E                     	;# 
   291  001F                     	;# 
   292  0081                     	;# 
   293  0085                     	;# 
   294  0086                     	;# 
   295  0087                     	;# 
   296  0088                     	;# 
   297  0089                     	;# 
   298  008C                     	;# 
   299  008D                     	;# 
   300  008E                     	;# 
   301  0091                     	;# 
   302  0092                     	;# 
   303  0093                     	;# 
   304  0094                     	;# 
   305  0098                     	;# 
   306  0099                     	;# 
   307  009C                     	;# 
   308  009D                     	;# 
   309  009E                     	;# 
   310  009F                     	;# 
   311  010C                     	;# 
   312  010D                     	;# 
   313  010E                     	;# 
   314  010F                     	;# 
   315  018C                     	;# 
   316  018D                     	;# 
   317  0000                     	;# 
   318  0001                     	;# 
   319  0002                     	;# 
   320  0003                     	;# 
   321  0004                     	;# 
   322  0005                     	;# 
   323  0006                     	;# 
   324  0007                     	;# 
   325  0008                     	;# 
   326  0009                     	;# 
   327  000A                     	;# 
   328  000B                     	;# 
   329  000C                     	;# 
   330  000D                     	;# 
   331  000E                     	;# 
   332  000E                     	;# 
   333  000F                     	;# 
   334  0010                     	;# 
   335  0011                     	;# 
   336  0012                     	;# 
   337  0013                     	;# 
   338  0014                     	;# 
   339  0015                     	;# 
   340  0015                     	;# 
   341  0016                     	;# 
   342  0017                     	;# 
   343  0018                     	;# 
   344  0019                     	;# 
   345  001A                     	;# 
   346  001B                     	;# 
   347  001B                     	;# 
   348  001C                     	;# 
   349  001D                     	;# 
   350  001E                     	;# 
   351  001F                     	;# 
   352  0081                     	;# 
   353  0085                     	;# 
   354  0086                     	;# 
   355  0087                     	;# 
   356  0088                     	;# 
   357  0089                     	;# 
   358  008C                     	;# 
   359  008D                     	;# 
   360  008E                     	;# 
   361  0091                     	;# 
   362  0092                     	;# 
   363  0093                     	;# 
   364  0094                     	;# 
   365  0098                     	;# 
   366  0099                     	;# 
   367  009C                     	;# 
   368  009D                     	;# 
   369  009E                     	;# 
   370  009F                     	;# 
   371  010C                     	;# 
   372  010D                     	;# 
   373  010E                     	;# 
   374  010F                     	;# 
   375  018C                     	;# 
   376  018D                     	;# 
   377  0000                     	;# 
   378  0001                     	;# 
   379  0002                     	;# 
   380  0003                     	;# 
   381  0004                     	;# 
   382  0005                     	;# 
   383  0006                     	;# 
   384  0007                     	;# 
   385  0008                     	;# 
   386  0009                     	;# 
   387  000A                     	;# 
   388  000B                     	;# 
   389  000C                     	;# 
   390  000D                     	;# 
   391  000E                     	;# 
   392  000E                     	;# 
   393  000F                     	;# 
   394  0010                     	;# 
   395  0011                     	;# 
   396  0012                     	;# 
   397  0013                     	;# 
   398  0014                     	;# 
   399  0015                     	;# 
   400  0015                     	;# 
   401  0016                     	;# 
   402  0017                     	;# 
   403  0018                     	;# 
   404  0019                     	;# 
   405  001A                     	;# 
   406  001B                     	;# 
   407  001B                     	;# 
   408  001C                     	;# 
   409  001D                     	;# 
   410  001E                     	;# 
   411  001F                     	;# 
   412  0081                     	;# 
   413  0085                     	;# 
   414  0086                     	;# 
   415  0087                     	;# 
   416  0088                     	;# 
   417  0089                     	;# 
   418  008C                     	;# 
   419  008D                     	;# 
   420  008E                     	;# 
   421  0091                     	;# 
   422  0092                     	;# 
   423  0093                     	;# 
   424  0094                     	;# 
   425  0098                     	;# 
   426  0099                     	;# 
   427  009C                     	;# 
   428  009D                     	;# 
   429  009E                     	;# 
   430  009F                     	;# 
   431  010C                     	;# 
   432  010D                     	;# 
   433  010E                     	;# 
   434  010F                     	;# 
   435  018C                     	;# 
   436  018D                     	;# 
   437  0000                     	;# 
   438  0001                     	;# 
   439  0002                     	;# 
   440  0003                     	;# 
   441  0004                     	;# 
   442  0005                     	;# 
   443  0006                     	;# 
   444  0007                     	;# 
   445  0008                     	;# 
   446  0009                     	;# 
   447  000A                     	;# 
   448  000B                     	;# 
   449  000C                     	;# 
   450  000D                     	;# 
   451  000E                     	;# 
   452  000E                     	;# 
   453  000F                     	;# 
   454  0010                     	;# 
   455  0011                     	;# 
   456  0012                     	;# 
   457  0013                     	;# 
   458  0014                     	;# 
   459  0015                     	;# 
   460  0015                     	;# 
   461  0016                     	;# 
   462  0017                     	;# 
   463  0018                     	;# 
   464  0019                     	;# 
   465  001A                     	;# 
   466  001B                     	;# 
   467  001B                     	;# 
   468  001C                     	;# 
   469  001D                     	;# 
   470  001E                     	;# 
   471  001F                     	;# 
   472  0081                     	;# 
   473  0085                     	;# 
   474  0086                     	;# 
   475  0087                     	;# 
   476  0088                     	;# 
   477  0089                     	;# 
   478  008C                     	;# 
   479  008D                     	;# 
   480  008E                     	;# 
   481  0091                     	;# 
   482  0092                     	;# 
   483  0093                     	;# 
   484  0094                     	;# 
   485  0098                     	;# 
   486  0099                     	;# 
   487  009C                     	;# 
   488  009D                     	;# 
   489  009E                     	;# 
   490  009F                     	;# 
   491  010C                     	;# 
   492  010D                     	;# 
   493  010E                     	;# 
   494  010F                     	;# 
   495  018C                     	;# 
   496  018D                     	;# 
   497                           
   498                           	psect	idataCOMMON
   499  07FB                     __pidataCOMMON:
   500                           
   501                           ;initializer for read_matrix_keypad@once
   502  07FB  3401               	retlw	1
   503                           
   504                           	psect	idataBANK0
   505  07FC                     __pidataBANK0:
   506                           
   507                           ;initializer for _screen_flag
   508  07FC  3410               	retlw	16
   509  0008                     _PORTD	set	8
   510  0061                     _TMR2IF	set	97
   511  0032                     _RB2	set	50
   512  0031                     _RB1	set	49
   513  0030                     _RB0	set	48
   514  0040                     _RD0	set	64
   515  0041                     _RD1	set	65
   516  0042                     _RD2	set	66
   517  0043                     _RD3	set	67
   518  003A                     _RC2	set	58
   519  0092                     _TMR2ON	set	146
   520  005F                     _GIE	set	95
   521  005E                     _PEIE	set	94
   522  0049                     _RE1	set	73
   523  004A                     _RE2	set	74
   524  0092                     _PR2	set	146
   525  0086                     _TRISB	set	134
   526  0088                     _TRISD	set	136
   527  0461                     _TMR2IE	set	1121
   528  040F                     _nRBPU	set	1039
   529  043A                     _TRISC2	set	1082
   530  0449                     _TRISE1	set	1097
   531  044A                     _TRISE2	set	1098
   532                           
   533                           	psect	strings
   534  0600                     __pstrings:
   535  0600                     stringtab:
   536  0600                     __stringtab:
   537  0600                     stringcode:	
   538                           ;	String table - string pointers are 1 byte each
   539                           
   540  0600                     stringdir:
   541  0600  3006               	movlw	high stringdir
   542  0601  008A               	movwf	10
   543  0602  0804               	movf	4,w
   544  0603  0A84               	incf	4,f
   545  0604  0782               	addwf	2,f
   546  0605                     __stringbase:
   547  0605  3400               	retlw	0
   548  0606                     __end_of__stringtab:
   549  0606                     STR_8:
   550  0606  3453               	retlw	83	;'S'
   551  0607  3445               	retlw	69	;'E'
   552  0608  3454               	retlw	84	;'T'
   553  0609  3420               	retlw	32	;' '
   554  060A  3454               	retlw	84	;'T'
   555  060B  3449               	retlw	73	;'I'
   556  060C  344D               	retlw	77	;'M'
   557  060D  3445               	retlw	69	;'E'
   558  060E  3420               	retlw	32	;' '
   559  060F  3428               	retlw	40	;'('
   560  0610  344D               	retlw	77	;'M'
   561  0611  344D               	retlw	77	;'M'
   562  0612  343A               	retlw	58	;':'
   563  0613  3453               	retlw	83	;'S'
   564  0614  3453               	retlw	83	;'S'
   565  0615  3429               	retlw	41	;')'
   566  0616  3400               	retlw	0
   567  0617                     STR_10:
   568  0617  342A               	retlw	42	;'*'
   569  0618  343A               	retlw	58	;':'
   570  0619  3443               	retlw	67	;'C'
   571  061A  344C               	retlw	76	;'L'
   572  061B  3445               	retlw	69	;'E'
   573  061C  3441               	retlw	65	;'A'
   574  061D  3452               	retlw	82	;'R'
   575  061E  3420               	retlw	32	;' '
   576  061F  3423               	retlw	35	;'#'
   577  0620  343A               	retlw	58	;':'
   578  0621  3445               	retlw	69	;'E'
   579  0622  344E               	retlw	78	;'N'
   580  0623  3454               	retlw	84	;'T'
   581  0624  3445               	retlw	69	;'E'
   582  0625  3452               	retlw	82	;'R'
   583  0626  3400               	retlw	0
   584  0627                     STR_21:
   585  0627  3445               	retlw	69	;'E'
   586  0628  346E               	retlw	110	;'n'
   587  0629  346A               	retlw	106	;'j'
   588  062A  346F               	retlw	111	;'o'
   589  062B  3479               	retlw	121	;'y'
   590  062C  3420               	retlw	32	;' '
   591  062D  3479               	retlw	121	;'y'
   592  062E  346F               	retlw	111	;'o'
   593  062F  3475               	retlw	117	;'u'
   594  0630  3472               	retlw	114	;'r'
   595  0631  3420               	retlw	32	;' '
   596  0632  346D               	retlw	109	;'m'
   597  0633  3465               	retlw	101	;'e'
   598  0634  3461               	retlw	97	;'a'
   599  0635  346C               	retlw	108	;'l'
   600  0636  3400               	retlw	0
   601  0637                     STR_17:
   602  0637  3434               	retlw	52	;'4'
   603  0638  342E               	retlw	46	;'.'
   604  0639  3453               	retlw	83	;'S'
   605  063A  3454               	retlw	84	;'T'
   606  063B  3441               	retlw	65	;'A'
   607  063C  3452               	retlw	82	;'R'
   608  063D  3454               	retlw	84	;'T'
   609  063E  342F               	retlw	47	;'/'
   610  063F  3452               	retlw	82	;'R'
   611  0640  3445               	retlw	69	;'E'
   612  0641  3453               	retlw	83	;'S'
   613  0642  3455               	retlw	85	;'U'
   614  0643  344D               	retlw	77	;'M'
   615  0644  3445               	retlw	69	;'E'
   616  0645  3400               	retlw	0
   617  0646                     STR_3:
   618  0646  344D               	retlw	77	;'M'
   619  0647  3469               	retlw	105	;'i'
   620  0648  3463               	retlw	99	;'c'
   621  0649  3472               	retlw	114	;'r'
   622  064A  346F               	retlw	111	;'o'
   623  064B  3477               	retlw	119	;'w'
   624  064C  3461               	retlw	97	;'a'
   625  064D  3476               	retlw	118	;'v'
   626  064E  3465               	retlw	101	;'e'
   627  064F  3420               	retlw	32	;' '
   628  0650  346F               	retlw	111	;'o'
   629  0651  3476               	retlw	118	;'v'
   630  0652  3465               	retlw	101	;'e'
   631  0653  346E               	retlw	110	;'n'
   632  0654  3400               	retlw	0
   633  0655                     STR_11:
   634  0655  3453               	retlw	83	;'S'
   635  0656  3445               	retlw	69	;'E'
   636  0657  3454               	retlw	84	;'T'
   637  0658  3420               	retlw	32	;' '
   638  0659  3454               	retlw	84	;'T'
   639  065A  3445               	retlw	69	;'E'
   640  065B  344D               	retlw	77	;'M'
   641  065C  3450               	retlw	80	;'P'
   642  065D  3420               	retlw	32	;' '
   643  065E  343C               	retlw	60	;'<'
   644  065F  342A               	retlw	42	;'*'
   645  0660  3443               	retlw	67	;'C'
   646  0661  343E               	retlw	62	;'>'
   647  0662  3400               	retlw	0
   648  0663                     STR_6:
   649  0663  3433               	retlw	51	;'3'
   650  0664  3420               	retlw	32	;' '
   651  0665  3443               	retlw	67	;'C'
   652  0666  346F               	retlw	111	;'o'
   653  0667  346E               	retlw	110	;'n'
   654  0668  3476               	retlw	118	;'v'
   655  0669  3465               	retlw	101	;'e'
   656  066A  3463               	retlw	99	;'c'
   657  066B  3474               	retlw	116	;'t'
   658  066C  3469               	retlw	105	;'i'
   659  066D  346F               	retlw	111	;'o'
   660  066E  346E               	retlw	110	;'n'
   661  066F  3400               	retlw	0
   662  0670                     STR_1:
   663  0670  3450               	retlw	80	;'P'
   664  0671  346F               	retlw	111	;'o'
   665  0672  3477               	retlw	119	;'w'
   666  0673  3465               	retlw	101	;'e'
   667  0674  3472               	retlw	114	;'r'
   668  0675  3420               	retlw	32	;' '
   669  0676  343D               	retlw	61	;'='
   670  0677  3420               	retlw	32	;' '
   671  0678  3439               	retlw	57	;'9'
   672  0679  3430               	retlw	48	;'0'
   673  067A  3430               	retlw	48	;'0'
   674  067B  3457               	retlw	87	;'W'
   675  067C  3400               	retlw	0
   676  067D                     STR_2:
   677  067D  3450               	retlw	80	;'P'
   678  067E  346F               	retlw	111	;'o'
   679  067F  3477               	retlw	119	;'w'
   680  0680  3465               	retlw	101	;'e'
   681  0681  3472               	retlw	114	;'r'
   682  0682  3469               	retlw	105	;'i'
   683  0683  346E               	retlw	110	;'n'
   684  0684  3467               	retlw	103	;'g'
   685  0685  3420               	retlw	32	;' '
   686  0686  344F               	retlw	79	;'O'
   687  0687  344E               	retlw	78	;'N'
   688  0688  3400               	retlw	0
   689  0689                     STR_14:
   690  0689  3450               	retlw	80	;'P'
   691  068A  3472               	retlw	114	;'r'
   692  068B  3465               	retlw	101	;'e'
   693  068C  342D               	retlw	45	;'-'
   694  068D  3448               	retlw	72	;'H'
   695  068E  3465               	retlw	101	;'e'
   696  068F  3461               	retlw	97	;'a'
   697  0690  3474               	retlw	116	;'t'
   698  0691  3469               	retlw	105	;'i'
   699  0692  346E               	retlw	110	;'n'
   700  0693  3467               	retlw	103	;'g'
   701  0694  3400               	retlw	0
   702  0695                     STR_20:
   703  0695  3454               	retlw	84	;'T'
   704  0696  3449               	retlw	73	;'I'
   705  0697  344D               	retlw	77	;'M'
   706  0698  3445               	retlw	69	;'E'
   707  0699  3420               	retlw	32	;' '
   708  069A  3455               	retlw	85	;'U'
   709  069B  3450               	retlw	80	;'P'
   710  069C  3421               	retlw	33	;'!'
   711  069D  3421               	retlw	33	;'!'
   712  069E  3421               	retlw	33	;'!'
   713  069F  3400               	retlw	0
   714  06A0                     STR_15:
   715  06A0  3454               	retlw	84	;'T'
   716  06A1  3469               	retlw	105	;'i'
   717  06A2  346D               	retlw	109	;'m'
   718  06A3  3465               	retlw	101	;'e'
   719  06A4  3420               	retlw	32	;' '
   720  06A5  3452               	retlw	82	;'R'
   721  06A6  3465               	retlw	101	;'e'
   722  06A7  346D               	retlw	109	;'m'
   723  06A8  343A               	retlw	58	;':'
   724  06A9  3400               	retlw	0
   725  06AA                     STR_16:
   726  06AA  3454               	retlw	84	;'T'
   727  06AB  3449               	retlw	73	;'I'
   728  06AC  344D               	retlw	77	;'M'
   729  06AD  3445               	retlw	69	;'E'
   730  06AE  3420               	retlw	32	;' '
   731  06AF  343D               	retlw	61	;'='
   732  06B0  3420               	retlw	32	;' '
   733  06B1  3400               	retlw	0
   734  06B2                     STR_18:
   735  06B2  3435               	retlw	53	;'5'
   736  06B3  342E               	retlw	46	;'.'
   737  06B4  3450               	retlw	80	;'P'
   738  06B5  3441               	retlw	65	;'A'
   739  06B6  3455               	retlw	85	;'U'
   740  06B7  3453               	retlw	83	;'S'
   741  06B8  3445               	retlw	69	;'E'
   742  06B9  3400               	retlw	0
   743  06BA                     STR_5:
   744  06BA  3432               	retlw	50	;'2'
   745  06BB  3420               	retlw	32	;' '
   746  06BC  3447               	retlw	71	;'G'
   747  06BD  3472               	retlw	114	;'r'
   748  06BE  3469               	retlw	105	;'i'
   749  06BF  346C               	retlw	108	;'l'
   750  06C0  346C               	retlw	108	;'l'
   751  06C1  3400               	retlw	0
   752  06C2                     STR_4:
   753  06C2  3431               	retlw	49	;'1'
   754  06C3  3420               	retlw	32	;' '
   755  06C4  344D               	retlw	77	;'M'
   756  06C5  3469               	retlw	105	;'i'
   757  06C6  3463               	retlw	99	;'c'
   758  06C7  3472               	retlw	114	;'r'
   759  06C8  346F               	retlw	111	;'o'
   760  06C9  3400               	retlw	0
   761  06CA                     STR_7:
   762  06CA  3434               	retlw	52	;'4'
   763  06CB  3420               	retlw	32	;' '
   764  06CC  3453               	retlw	83	;'S'
   765  06CD  3474               	retlw	116	;'t'
   766  06CE  3461               	retlw	97	;'a'
   767  06CF  3472               	retlw	114	;'r'
   768  06D0  3474               	retlw	116	;'t'
   769  06D1  3400               	retlw	0
   770  06D2                     STR_19:
   771  06D2  3436               	retlw	54	;'6'
   772  06D3  342E               	retlw	46	;'.'
   773  06D4  3453               	retlw	83	;'S'
   774  06D5  3454               	retlw	84	;'T'
   775  06D6  344F               	retlw	79	;'O'
   776  06D7  3450               	retlw	80	;'P'
   777  06D8  3400               	retlw	0
   778  06D9                     STR_9:
   779  06D9  3454               	retlw	84	;'T'
   780  06DA  3449               	retlw	73	;'I'
   781  06DB  344D               	retlw	77	;'M'
   782  06DC  3445               	retlw	69	;'E'
   783  06DD  343A               	retlw	58	;':'
   784  06DE  3400               	retlw	0
   785  06DF                     STR_12:
   786  06DF  3454               	retlw	84	;'T'
   787  06E0  3445               	retlw	69	;'E'
   788  06E1  344D               	retlw	77	;'M'
   789  06E2  3450               	retlw	80	;'P'
   790  06E3  343D               	retlw	61	;'='
   791  06E4  3400               	retlw	0
   792  0617                     
   793                           	psect	cinit
   794  000F                     start_initialization:	
   795                           ; #config settings
   796                           
   797  000F                     __initialization:
   798                           
   799                           ; Initialize objects allocated to BANK0
   800  000F  120A  118A  27FC  120A  118A  	fcall	__pidataBANK0	;fetch initializer
   801  0014  00C3               	movwf	__pdataBANK0& (0+127)
   802                           
   803                           ; Initialize objects allocated to COMMON
   804  0015  120A  118A  27FB  120A  118A  	fcall	__pidataCOMMON	;fetch initializer
   805  001A  00FA               	movwf	__pdataCOMMON& (0+127)
   806                           
   807                           ; Clear objects allocated to BANK0
   808  001B  01B7               	clrf	__pbssBANK0& (0+127)
   809  001C  01B8               	clrf	(__pbssBANK0+1)& (0+127)
   810  001D  01B9               	clrf	(__pbssBANK0+2)& (0+127)
   811  001E  01BA               	clrf	(__pbssBANK0+3)& (0+127)
   812  001F  01BB               	clrf	(__pbssBANK0+4)& (0+127)
   813  0020  01BC               	clrf	(__pbssBANK0+5)& (0+127)
   814  0021  01BD               	clrf	(__pbssBANK0+6)& (0+127)
   815  0022  01BE               	clrf	(__pbssBANK0+7)& (0+127)
   816  0023  01BF               	clrf	(__pbssBANK0+8)& (0+127)
   817  0024  01C0               	clrf	(__pbssBANK0+9)& (0+127)
   818  0025  01C1               	clrf	(__pbssBANK0+10)& (0+127)
   819  0026  01C2               	clrf	(__pbssBANK0+11)& (0+127)
   820                           
   821                           ; Clear objects allocated to COMMON
   822  0027  01F8               	clrf	__pbssCOMMON& (0+127)
   823  0028  01F9               	clrf	(__pbssCOMMON+1)& (0+127)
   824  0029                     end_of_initialization:	
   825                           ;End of C runtime variable initialization code
   826                           
   827  0029                     __end_of__initialization:
   828  0029  0183               	clrf	3
   829  002A  120A  118A  2B69   	ljmp	_main	;jump to C main() function
   830                           
   831                           	psect	bssCOMMON
   832  0078                     __pbssCOMMON:
   833  0078                     isr@count:
   834  0078                     	ds	2
   835                           
   836                           	psect	dataCOMMON
   837  007A                     __pdataCOMMON:
   838  007A                     read_matrix_keypad@once:
   839  007A                     	ds	1
   840                           
   841                           	psect	bssBANK0
   842  0037                     __pbssBANK0:
   843  0037                     _temp:
   844  0037                     	ds	2
   845  0039                     set_temp@display_blank:
   846  0039                     	ds	1
   847  003A                     set_temp@delay:
   848  003A                     	ds	1
   849  003B                     set_temp@key_count:
   850  003B                     	ds	1
   851  003C                     set_time@display_blank:
   852  003C                     	ds	1
   853  003D                     set_time@delay:
   854  003D                     	ds	1
   855  003E                     set_time@key_count:
   856  003E                     	ds	1
   857  003F                     set_time@blink_pos:
   858  003F                     	ds	1
   859  0040                     _pre_heat:
   860  0040                     	ds	1
   861  0041                     _min:
   862  0041                     	ds	1
   863  0042                     _sec:
   864  0042                     	ds	1
   865                           
   866                           	psect	dataBANK0
   867  0043                     __pdataBANK0:
   868  0043                     _screen_flag:
   869  0043                     	ds	1
   870                           
   871                           	psect	cstackCOMMON
   872  0070                     __pcstackCOMMON:
   873  0070                     ?_init_matrix_keypad:
   874  0070                     ?_init_timer2:	
   875                           ; 1 bytes @ 0x0
   876                           
   877  0070                     ?_read_matrix_keypad:	
   878                           ; 1 bytes @ 0x0
   879                           
   880  0070                     ?_display_power_screen:	
   881                           ; 1 bytes @ 0x0
   882                           
   883  0070                     ?_display_modes:	
   884                           ; 1 bytes @ 0x0
   885                           
   886  0070                     ?_display_time:	
   887                           ; 1 bytes @ 0x0
   888                           
   889  0070                     ?_heat_food:	
   890                           ; 1 bytes @ 0x0
   891                           
   892  0070                     ?_init_display_controller:	
   893                           ; 1 bytes @ 0x0
   894                           
   895  0070                     ?_init_clcd:	
   896                           ; 1 bytes @ 0x0
   897                           
   898  0070                     ?_clear_screen:	
   899                           ; 1 bytes @ 0x0
   900                           
   901  0070                     ?_init_config:	
   902                           ; 1 bytes @ 0x0
   903                           
   904  0070                     ?_main:	
   905                           ; 1 bytes @ 0x0
   906                           
   907  0070                     ?_scan_keypad:	
   908                           ; 1 bytes @ 0x0
   909                           
   910  0070                     ?_isr:	
   911                           ; 1 bytes @ 0x0
   912                           
   913  0070                     ??_isr:	
   914                           ; 1 bytes @ 0x0
   915                           
   916                           
   917                           ; 1 bytes @ 0x0
   918  0070                     	ds	3
   919  0073                     ??_init_matrix_keypad:
   920  0073                     ??_init_timer2:	
   921                           ; 1 bytes @ 0x3
   922                           
   923  0073                     ??_heat_food:	
   924                           ; 1 bytes @ 0x3
   925                           
   926  0073                     ?_clcd_write:	
   927                           ; 1 bytes @ 0x3
   928                           
   929  0073                     ??_scan_keypad:	
   930                           ; 1 bytes @ 0x3
   931                           
   932  0073                     ?___bmul:	
   933                           ; 1 bytes @ 0x3
   934                           
   935  0073                     ?___wmul:	
   936                           ; 1 bytes @ 0x3
   937                           
   938  0073                     ?___awdiv:	
   939                           ; 2 bytes @ 0x3
   940                           
   941  0073                     ?___lwdiv:	
   942                           ; 2 bytes @ 0x3
   943                           
   944  0073                     clcd_write@mode:	
   945                           ; 2 bytes @ 0x3
   946                           
   947  0073                     ___bmul@multiplicand:	
   948                           ; 1 bytes @ 0x3
   949                           
   950  0073                     scan_keypad@i:	
   951                           ; 1 bytes @ 0x3
   952                           
   953  0073                     ___wmul@multiplier:	
   954                           ; 2 bytes @ 0x3
   955                           
   956  0073                     ___awdiv@divisor:	
   957                           ; 2 bytes @ 0x3
   958                           
   959  0073                     ___lwdiv@divisor:	
   960                           ; 2 bytes @ 0x3
   961                           
   962                           
   963                           ; 2 bytes @ 0x3
   964  0073                     	ds	1
   965  0074                     ??_clcd_write:
   966  0074                     ??___bmul:	
   967                           ; 1 bytes @ 0x4
   968                           
   969                           
   970                           ; 1 bytes @ 0x4
   971  0074                     	ds	1
   972  0075                     ??_read_matrix_keypad:
   973  0075                     ___bmul@product:	
   974                           ; 1 bytes @ 0x5
   975                           
   976  0075                     ___wmul@multiplicand:	
   977                           ; 1 bytes @ 0x5
   978                           
   979  0075                     ___awdiv@dividend:	
   980                           ; 2 bytes @ 0x5
   981                           
   982  0075                     ___lwdiv@dividend:	
   983                           ; 2 bytes @ 0x5
   984                           
   985                           
   986                           ; 2 bytes @ 0x5
   987  0075                     	ds	1
   988  0076                     clcd_write@byte:
   989  0076                     read_matrix_keypad@mode:	
   990                           ; 1 bytes @ 0x6
   991                           
   992  0076                     ___bmul@multiplier:	
   993                           ; 1 bytes @ 0x6
   994                           
   995                           
   996                           ; 1 bytes @ 0x6
   997  0076                     	ds	1
   998  0077                     ??_init_clcd:
   999  0077                     ?_clcd_print:	
  1000                           ; 1 bytes @ 0x7
  1001                           
  1002  0077                     ??_init_config:	
  1003                           ; 1 bytes @ 0x7
  1004                           
  1005  0077                     ??___wmul:	
  1006                           ; 1 bytes @ 0x7
  1007                           
  1008  0077                     ??___awdiv:	
  1009                           ; 1 bytes @ 0x7
  1010                           
  1011  0077                     ??___lwdiv:	
  1012                           ; 1 bytes @ 0x7
  1013                           
  1014  0077                     clcd_print@addr:	
  1015                           ; 1 bytes @ 0x7
  1016                           
  1017  0077                     read_matrix_keypad@key:	
  1018                           ; 1 bytes @ 0x7
  1019                           
  1020                           
  1021                           ; 1 bytes @ 0x7
  1022  0077                     	ds	1
  1023  0078                     ??_clcd_putch:
  1024                           
  1025                           	psect	cstackBANK0
  1026  0020                     __pcstackBANK0:	
  1027                           ; 1 bytes @ 0x8
  1028                           
  1029  0020                     ??_init_display_controller:
  1030  0020                     ??_clcd_print:	
  1031                           ; 1 bytes @ 0x0
  1032                           
  1033  0020                     ??_clear_screen:	
  1034                           ; 1 bytes @ 0x0
  1035                           
  1036  0020                     ___awdiv@counter:	
  1037                           ; 1 bytes @ 0x0
  1038                           
  1039  0020                     ___lwdiv@counter:	
  1040                           ; 1 bytes @ 0x0
  1041                           
  1042  0020                     ___wmul@product:	
  1043                           ; 1 bytes @ 0x0
  1044                           
  1045                           
  1046                           ; 2 bytes @ 0x0
  1047  0020                     	ds	1
  1048  0021                     clcd_print@str:
  1049  0021                     ___awdiv@sign:	
  1050                           ; 1 bytes @ 0x1
  1051                           
  1052  0021                     ___lwdiv@quotient:	
  1053                           ; 1 bytes @ 0x1
  1054                           
  1055                           
  1056                           ; 2 bytes @ 0x1
  1057  0021                     	ds	1
  1058  0022                     ??_display_modes:
  1059  0022                     ___awdiv@quotient:	
  1060                           ; 1 bytes @ 0x2
  1061                           
  1062                           
  1063                           ; 2 bytes @ 0x2
  1064  0022                     	ds	1
  1065  0023                     ?___lwmod:
  1066  0023                     ___lwmod@divisor:	
  1067                           ; 2 bytes @ 0x3
  1068                           
  1069                           
  1070                           ; 2 bytes @ 0x3
  1071  0023                     	ds	1
  1072  0024                     ?___awmod:
  1073  0024                     ___awmod@divisor:	
  1074                           ; 2 bytes @ 0x4
  1075                           
  1076                           
  1077                           ; 2 bytes @ 0x4
  1078  0024                     	ds	1
  1079  0025                     ___lwmod@dividend:
  1080                           
  1081                           ; 2 bytes @ 0x5
  1082  0025                     	ds	1
  1083  0026                     ___awmod@dividend:
  1084                           
  1085                           ; 2 bytes @ 0x6
  1086  0026                     	ds	1
  1087  0027                     ??___lwmod:
  1088                           
  1089                           ; 1 bytes @ 0x7
  1090  0027                     	ds	1
  1091  0028                     ??___awmod:
  1092  0028                     ___lwmod@counter:	
  1093                           ; 1 bytes @ 0x8
  1094                           
  1095                           
  1096                           ; 1 bytes @ 0x8
  1097  0028                     	ds	1
  1098  0029                     ___awmod@counter:
  1099                           
  1100                           ; 1 bytes @ 0x9
  1101  0029                     	ds	1
  1102  002A                     ___awmod@sign:
  1103                           
  1104                           ; 1 bytes @ 0xA
  1105  002A                     	ds	1
  1106  002B                     ?_clcd_putch:
  1107  002B                     clcd_putch@addr:	
  1108                           ; 1 bytes @ 0xB
  1109                           
  1110                           
  1111                           ; 1 bytes @ 0xB
  1112  002B                     	ds	1
  1113  002C                     clcd_putch@data:
  1114                           
  1115                           ; 1 bytes @ 0xC
  1116  002C                     	ds	1
  1117  002D                     ??_display_power_screen:
  1118  002D                     ?_set_time:	
  1119                           ; 1 bytes @ 0xD
  1120                           
  1121  002D                     ??_display_time:	
  1122                           ; 1 bytes @ 0xD
  1123                           
  1124  002D                     ?_set_temp:	
  1125                           ; 1 bytes @ 0xD
  1126                           
  1127  002D                     set_time@reset_flag:	
  1128                           ; 1 bytes @ 0xD
  1129                           
  1130  002D                     set_temp@reset_flag:	
  1131                           ; 1 bytes @ 0xD
  1132                           
  1133                           
  1134                           ; 1 bytes @ 0xD
  1135  002D                     	ds	1
  1136  002E                     ??_set_time:
  1137  002E                     ??_set_temp:	
  1138                           ; 1 bytes @ 0xE
  1139                           
  1140                           
  1141                           ; 1 bytes @ 0xE
  1142  002E                     	ds	2
  1143  0030                     display_power_screen@i:
  1144                           
  1145                           ; 1 bytes @ 0x10
  1146  0030                     	ds	1
  1147  0031                     display_power_screen@i_154:
  1148  0031                     set_time@key:	
  1149                           ; 1 bytes @ 0x11
  1150                           
  1151  0031                     set_temp@key:	
  1152                           ; 1 bytes @ 0x11
  1153                           
  1154                           
  1155                           ; 1 bytes @ 0x11
  1156  0031                     	ds	1
  1157  0032                     ??_main:
  1158                           
  1159                           ; 1 bytes @ 0x12
  1160  0032                     	ds	3
  1161  0035                     main@reset_flag:
  1162                           
  1163                           ; 1 bytes @ 0x15
  1164  0035                     	ds	1
  1165  0036                     main@key:
  1166                           
  1167                           ; 1 bytes @ 0x16
  1168  0036                     	ds	1
  1169                           
  1170                           	psect	maintext
  1171  0369                     __pmaintext:	
  1172 ;;
  1173 ;;Main: autosize = 0, tempsize = 3, incstack = 0, save=0
  1174 ;;
  1175 ;; *************** function _main *****************
  1176 ;; Defined at:
  1177 ;;		line 27 in file "main.c"
  1178 ;; Parameters:    Size  Location     Type
  1179 ;;		None
  1180 ;; Auto vars:     Size  Location     Type
  1181 ;;  key             1   22[BANK0 ] unsigned char 
  1182 ;;  reset_flag      1   21[BANK0 ] unsigned char 
  1183 ;; Return value:  Size  Location     Type
  1184 ;;                  1    wreg      void 
  1185 ;; Registers used:
  1186 ;;		wreg, fsr0l, fsr0h, status,2, status,0, btemp+1, pclath, cstack
  1187 ;; Tracked objects:
  1188 ;;		On entry : B00/0
  1189 ;;		On exit  : 0/0
  1190 ;;		Unchanged: 0/0
  1191 ;; Data sizes:     COMMON   BANK0   BANK1   BANK3   BANK2
  1192 ;;      Params:         0       0       0       0       0
  1193 ;;      Locals:         0       2       0       0       0
  1194 ;;      Temps:          0       3       0       0       0
  1195 ;;      Totals:         0       5       0       0       0
  1196 ;;Total ram usage:        5 bytes
  1197 ;; Hardware stack levels required when called: 5
  1198 ;; This function calls:
  1199 ;;		_clcd_print
  1200 ;;		_clear_screen
  1201 ;;		_display_modes
  1202 ;;		_display_power_screen
  1203 ;;		_display_time
  1204 ;;		_heat_food
  1205 ;;		_init_config
  1206 ;;		_read_matrix_keypad
  1207 ;;		_set_temp
  1208 ;;		_set_time
  1209 ;; This function is called by:
  1210 ;;		Startup code after reset
  1211 ;; This function uses a non-reentrant model
  1212 ;;
  1213                           
  1214  0369                     _main:	
  1215                           ;psect for function _main
  1216                           
  1217  0369                     l2720:	
  1218                           ;incstack = 0
  1219                           ; Regs used in _main: [wreg-fsr0h+status,2+status,0+btemp+1+pclath+cstack]
  1220                           
  1221                           
  1222                           ;main.c: 28:                 clcd_print("Power = 900W",(0xC0 + 2));
  1223  0369  120A  158A  253D  120A  118A  	fcall	_init_config
  1224  036E                     l2722:
  1225                           
  1226                           ;main.c: 33:             else if(key == 2);main.c: 35:                     screen_flag =
      +                           0x40;
  1227  036E  3001               	movlw	1
  1228  036F  120A  158A  2552  120A  118A  	fcall	_read_matrix_keypad
  1229  0374  1283               	bcf	3,5	;RP0=0, select bank0
  1230  0375  1303               	bcf	3,6	;RP1=0, select bank0
  1231  0376  00B2               	movwf	??_main
  1232  0377  0832               	movf	??_main,w
  1233  0378  00B6               	movwf	main@key
  1234  0379                     l2724:
  1235                           
  1236                           ;main.c: 36:                     reset_flag = 0x31;
  1237  0379  3020               	movlw	32
  1238  037A  0643               	xorwf	_screen_flag,w
  1239  037B  1D03               	btfss	3,2
  1240  037C  2B7E               	goto	u2731
  1241  037D  2B7F               	goto	u2730
  1242  037E                     u2731:
  1243  037E  2BE2               	goto	l2758
  1244  037F                     u2730:
  1245  037F                     l2726:
  1246                           
  1247                           ;main.c: 37:                     clear_screen();;main.c: 38:             }
  1248  037F  0336               	decf	main@key,w
  1249  0380  1D03               	btfss	3,2
  1250  0381  2B83               	goto	u2741
  1251  0382  2B84               	goto	u2740
  1252  0383                     u2741:
  1253  0383  2BB3               	goto	l2740
  1254  0384                     u2740:
  1255  0384                     l2728:
  1256                           
  1257                           ;main.c: 39:             else if(key == 3);main.c: 40:                 {
  1258  0384  3030               	movlw	48
  1259  0385  00B2               	movwf	??_main
  1260  0386  0832               	movf	??_main,w
  1261  0387  00C3               	movwf	_screen_flag
  1262  0388                     l2730:
  1263                           
  1264                           ;main.c: 41:                     screen_flag = 0x50;
  1265  0388  120A  158A  2516  120A  118A  	fcall	_clear_screen
  1266  038D                     l2732:
  1267                           
  1268                           ;main.c: 42:                     reset_flag = 0x31;
  1269  038D  30C2               	movlw	194
  1270  038E  1283               	bcf	3,5	;RP0=0, select bank0
  1271  038F  1303               	bcf	3,6	;RP1=0, select bank0
  1272  0390  00B2               	movwf	??_main
  1273  0391  0832               	movf	??_main,w
  1274  0392  00F7               	movwf	clcd_print@addr
  1275  0393  306B               	movlw	(low ((STR_1-__stringbase)| (0+32768)))& (0+255)
  1276  0394  120A  158A  25A2  120A  118A  	fcall	_clcd_print
  1277  0399                     l2734:
  1278                           
  1279                           ;main.c: 43:                     clear_screen();
  1280  0399  304D               	movlw	77
  1281  039A  1283               	bcf	3,5	;RP0=0, select bank0
  1282  039B  1303               	bcf	3,6	;RP1=0, select bank0
  1283  039C  00B4               	movwf	??_main+2
  1284  039D  3019               	movlw	25
  1285  039E  00B3               	movwf	??_main+1
  1286  039F  304F               	movlw	79
  1287  03A0  00B2               	movwf	??_main
  1288  03A1                     u2857:
  1289  03A1  0BB2               	decfsz	??_main,f
  1290  03A2  2BA1               	goto	u2857
  1291  03A3  0BB3               	decfsz	??_main+1,f
  1292  03A4  2BA1               	goto	u2857
  1293  03A5  0BB4               	decfsz	??_main+2,f
  1294  03A6  2BA1               	goto	u2857
  1295  03A7                     l2736:
  1296                           
  1297                           ;main.c: 44:                 }
  1298  03A7  120A  158A  2516  120A  118A  	fcall	_clear_screen
  1299  03AC                     l2738:
  1300                           
  1301                           ;main.c: 45:             else if(key == 4)
  1302  03AC  3031               	movlw	49
  1303  03AD  1283               	bcf	3,5	;RP0=0, select bank0
  1304  03AE  1303               	bcf	3,6	;RP1=0, select bank0
  1305  03AF  00B2               	movwf	??_main
  1306  03B0  0832               	movf	??_main,w
  1307  03B1  00B5               	movwf	main@reset_flag
  1308                           
  1309                           ;main.c: 46:                 {
  1310  03B2  2C75               	goto	l2806
  1311  03B3                     l2740:
  1312  03B3  3002               	movlw	2
  1313  03B4  0636               	xorwf	main@key,w
  1314  03B5  1D03               	btfss	3,2
  1315  03B6  2BB8               	goto	u2751
  1316  03B7  2BB9               	goto	u2750
  1317  03B8                     u2751:
  1318  03B8  2BC7               	goto	l2746
  1319  03B9                     u2750:
  1320  03B9                     l2742:
  1321                           
  1322                           ;main.c: 48:                     clear_screen();;main.c: 49:                 }
  1323  03B9  3040               	movlw	64
  1324  03BA  00B2               	movwf	??_main
  1325  03BB  0832               	movf	??_main,w
  1326  03BC  00C3               	movwf	_screen_flag
  1327                           
  1328                           ;main.c: 50:         }
  1329  03BD  3031               	movlw	49
  1330  03BE  00B2               	movwf	??_main
  1331  03BF  0832               	movf	??_main,w
  1332  03C0  00B5               	movwf	main@reset_flag
  1333  03C1                     l2744:
  1334                           
  1335                           ;main.c: 51: 
  1336  03C1  120A  158A  2516  120A  118A  	fcall	_clear_screen
  1337                           
  1338                           ;main.c: 52: 
  1339  03C6  2C75               	goto	l2806
  1340  03C7                     l2746:
  1341  03C7  3003               	movlw	3
  1342  03C8  0636               	xorwf	main@key,w
  1343  03C9  1D03               	btfss	3,2
  1344  03CA  2BCC               	goto	u2761
  1345  03CB  2BCD               	goto	u2760
  1346  03CC                     u2761:
  1347  03CC  2BD6               	goto	l2752
  1348  03CD                     u2760:
  1349  03CD                     l2748:
  1350                           
  1351                           ;main.c: 54:         {;main.c: 55:             if(key == 4)
  1352  03CD  3050               	movlw	80
  1353  03CE  00B2               	movwf	??_main
  1354  03CF  0832               	movf	??_main,w
  1355  03D0  00C3               	movwf	_screen_flag
  1356                           
  1357                           ;main.c: 56:             {
  1358  03D1  3031               	movlw	49
  1359  03D2  00B2               	movwf	??_main
  1360  03D3  0832               	movf	??_main,w
  1361  03D4  00B5               	movwf	main@reset_flag
  1362  03D5  2BC1               	goto	l2744
  1363  03D6                     l2752:
  1364  03D6  3004               	movlw	4
  1365  03D7  0636               	xorwf	main@key,w
  1366  03D8  1D03               	btfss	3,2
  1367  03D9  2BDB               	goto	u2771
  1368  03DA  2BDC               	goto	u2770
  1369  03DB                     u2771:
  1370  03DB  2BE1               	goto	l88
  1371  03DC                     u2770:
  1372  03DC                     l2754:
  1373                           
  1374                           ;main.c: 60:                     min++;;main.c: 61:                     sec = sec-60;
  1375  03DC  3060               	movlw	96
  1376  03DD  00B2               	movwf	??_main
  1377  03DE  0832               	movf	??_main,w
  1378  03DF  00C3               	movwf	_screen_flag
  1379  03E0  2BC1               	goto	l2744
  1380  03E1                     l88:
  1381                           
  1382                           ;main.c: 64:              if(key == 5)
  1383  03E1  2C75               	goto	l2806
  1384  03E2                     l2758:
  1385  03E2  3070               	movlw	112
  1386  03E3  0643               	xorwf	_screen_flag,w
  1387  03E4  1D03               	btfss	3,2
  1388  03E5  2BE7               	goto	u2781
  1389  03E6  2BE8               	goto	u2780
  1390  03E7                     u2781:
  1391  03E7  2C18               	goto	l2774
  1392  03E8                     u2780:
  1393  03E8                     l2760:
  1394                           
  1395                           ;main.c: 68:             else if(key == 6);main.c: 69:             {
  1396  03E8  3004               	movlw	4
  1397  03E9  0636               	xorwf	main@key,w
  1398  03EA  1D03               	btfss	3,2
  1399  03EB  2BED               	goto	u2791
  1400  03EC  2BEE               	goto	u2790
  1401  03ED                     u2791:
  1402  03ED  2C02               	goto	l96
  1403  03EE                     u2790:
  1404  03EE                     l2762:
  1405                           
  1406                           ;main.c: 70:                 screen_flag = 0x90;;main.c: 71:             }
  1407  03EE  0842               	movf	_sec,w
  1408  03EF  3E1E               	addlw	30
  1409  03F0  00B2               	movwf	??_main
  1410  03F1  0832               	movf	??_main,w
  1411  03F2  00C2               	movwf	_sec
  1412  03F3                     l2764:
  1413                           
  1414                           ;main.c: 72:         }
  1415  03F3  303C               	movlw	60
  1416  03F4  0242               	subwf	_sec,w
  1417  03F5  1C03               	skipc
  1418  03F6  2BF8               	goto	u2801
  1419  03F7  2BF9               	goto	u2800
  1420  03F8                     u2801:
  1421  03F8  2C02               	goto	l96
  1422  03F9                     u2800:
  1423  03F9                     l2766:
  1424                           
  1425                           ;main.c: 73:         else if(screen_flag == 0x80);main.c: 74:         {
  1426  03F9  3001               	movlw	1
  1427  03FA  00B2               	movwf	??_main
  1428  03FB  0832               	movf	??_main,w
  1429  03FC  07C1               	addwf	_min,f
  1430                           
  1431                           ;main.c: 75:               if(key == 4)
  1432  03FD  0842               	movf	_sec,w
  1433  03FE  3EC4               	addlw	196
  1434  03FF  00B2               	movwf	??_main
  1435  0400  0832               	movf	??_main,w
  1436  0401  00C2               	movwf	_sec
  1437  0402                     l96:	
  1438                           ;main.c: 77:                 TMR2ON = 1;
  1439                           
  1440                           
  1441                           ;main.c: 78:                  RC2 = 1;
  1442  0402  3005               	movlw	5
  1443  0403  0636               	xorwf	main@key,w
  1444  0404  1D03               	btfss	3,2
  1445  0405  2C07               	goto	u2811
  1446  0406  2C08               	goto	u2810
  1447  0407                     u2811:
  1448  0407  2C0D               	goto	l2770
  1449  0408                     u2810:
  1450  0408                     l2768:
  1451                           
  1452                           ;main.c: 79:                  screen_flag = 0x70;;main.c: 80: 
  1453  0408  3080               	movlw	128
  1454  0409  00B2               	movwf	??_main
  1455  040A  0832               	movf	??_main,w
  1456  040B  00C3               	movwf	_screen_flag
  1457                           
  1458                           ;main.c: 81:             }
  1459  040C  2C75               	goto	l2806
  1460  040D                     l2770:
  1461  040D  3006               	movlw	6
  1462  040E  0636               	xorwf	main@key,w
  1463  040F  1D03               	btfss	3,2
  1464  0410  2C12               	goto	u2821
  1465  0411  2C13               	goto	u2820
  1466  0412                     u2821:
  1467  0412  2C75               	goto	l2806
  1468  0413                     u2820:
  1469  0413                     l2772:
  1470                           
  1471                           ;main.c: 83: ;main.c: 84:         switch(screen_flag)
  1472  0413  3090               	movlw	144
  1473  0414  00B2               	movwf	??_main
  1474  0415  0832               	movf	??_main,w
  1475  0416  00C3               	movwf	_screen_flag
  1476  0417  2C75               	goto	l2806
  1477  0418                     l2774:
  1478  0418  3080               	movlw	128
  1479  0419  0643               	xorwf	_screen_flag,w
  1480  041A  1D03               	btfss	3,2
  1481  041B  2C1D               	goto	u2831
  1482  041C  2C1E               	goto	u2830
  1483  041D                     u2831:
  1484  041D  2BE1               	goto	l88
  1485  041E                     u2830:
  1486  041E                     l2776:
  1487                           
  1488                           ;main.c: 88:                                    display_power_screen();;main.c: 89:     
      +                                                         clear_screen();
  1489  041E  3004               	movlw	4
  1490  041F  0636               	xorwf	main@key,w
  1491  0420  1D03               	btfss	3,2
  1492  0421  2C23               	goto	u2841
  1493  0422  2C24               	goto	u2840
  1494  0423                     u2841:
  1495  0423  2C75               	goto	l2806
  1496  0424                     u2840:
  1497  0424                     l2778:
  1498                           
  1499                           ;main.c: 90:                                    screen_flag = 0X20;;main.c: 91:         
      +                                                     break;
  1500  0424  1512               	bsf	18,2	;volatile
  1501                           
  1502                           ;main.c: 92:             case 0X20 :
  1503  0425  1507               	bsf	7,2	;volatile
  1504  0426                     l2780:
  1505                           
  1506                           ;main.c: 93:                                    display_modes();
  1507  0426  3070               	movlw	112
  1508  0427  00B2               	movwf	??_main
  1509  0428  0832               	movf	??_main,w
  1510  0429  00C3               	movwf	_screen_flag
  1511  042A  2C75               	goto	l2806
  1512  042B                     l2782:
  1513                           
  1514                           ;main.c: 102:             case 0x40 :
  1515  042B  120A  158A  278A  120A  118A  	fcall	_display_power_screen
  1516  0430                     l2784:
  1517                           
  1518                           ;main.c: 103:                                    set_time(key,reset_flag );
  1519  0430  120A  158A  2516  120A  118A  	fcall	_clear_screen
  1520  0435                     l2786:
  1521                           
  1522                           ;main.c: 104:                                    break;
  1523  0435  3020               	movlw	32
  1524  0436  1283               	bcf	3,5	;RP0=0, select bank0
  1525  0437  1303               	bcf	3,6	;RP1=0, select bank0
  1526  0438  00B2               	movwf	??_main
  1527  0439  0832               	movf	??_main,w
  1528  043A  00C3               	movwf	_screen_flag
  1529                           
  1530                           ;main.c: 105:             case 0x50 :
  1531  043B  2C9C               	goto	l2808
  1532  043C                     l2788:
  1533                           
  1534                           ;main.c: 107:                                   set_temp(key , reset_flag);
  1535  043C  120A  158A  25D0  120A  118A  	fcall	_display_modes
  1536                           
  1537                           ;main.c: 109: 
  1538  0441  2C9C               	goto	l2808
  1539  0442                     l2790:
  1540                           
  1541                           ;main.c: 111:             case 0x60:
  1542  0442  0835               	movf	main@reset_flag,w
  1543  0443  00B2               	movwf	??_main
  1544  0444  0832               	movf	??_main,w
  1545  0445  00AD               	movwf	set_time@reset_flag
  1546  0446  0836               	movf	main@key,w
  1547  0447  120A  118A  21F5  120A  118A  	fcall	_set_time
  1548                           
  1549                           ;main.c: 112:                                    heat_food();
  1550  044C  2C9C               	goto	l2808
  1551  044D                     l2792:
  1552                           
  1553                           ;main.c: 114:             case 0x80 :
  1554  044D  120A  118A  24A6  120A  118A  	fcall	_display_time
  1555                           
  1556                           ;main.c: 115:                                   TMR2ON = 0;
  1557  0452  2C9C               	goto	l2808
  1558  0453                     l2794:
  1559                           
  1560                           ;main.c: 117:                                   break;
  1561  0453  0835               	movf	main@reset_flag,w
  1562  0454  00B2               	movwf	??_main
  1563  0455  0832               	movf	??_main,w
  1564  0456  00AD               	movwf	set_time@reset_flag
  1565  0457  0836               	movf	main@key,w
  1566  0458  120A  118A  21F5  120A  118A  	fcall	_set_time
  1567                           
  1568                           ;main.c: 118:             case 0x90 :
  1569  045D  2C9C               	goto	l2808
  1570  045E                     l2796:
  1571                           
  1572                           ;main.c: 121:                                  clear_screen();
  1573  045E  0835               	movf	main@reset_flag,w
  1574  045F  00B2               	movwf	??_main
  1575  0460  0832               	movf	??_main,w
  1576  0461  00AD               	movwf	set_temp@reset_flag
  1577  0462  0836               	movf	main@key,w
  1578  0463  120A  118A  202D  120A  118A  	fcall	_set_temp
  1579                           
  1580                           ;main.c: 124: 
  1581  0468  2C9C               	goto	l2808
  1582  0469                     l2798:
  1583                           
  1584                           ;main.c: 126:         }
  1585  0469  120A  158A  24F8  120A  118A  	fcall	_heat_food
  1586                           
  1587                           ;main.c: 127:         reset_flag = 0xFF ;
  1588  046E  2C9C               	goto	l2808
  1589  046F                     l113:	
  1590                           ;main.c: 128: 
  1591                           
  1592                           
  1593                           ;main.c: 129: 
  1594  046F  1112               	bcf	18,2	;volatile
  1595                           
  1596                           ;main.c: 130: 
  1597  0470  1107               	bcf	7,2	;volatile
  1598                           
  1599                           ;main.c: 131: 
  1600  0471  2C9C               	goto	l2808
  1601  0472                     l114:	
  1602                           ;main.c: 132: 
  1603                           
  1604                           
  1605                           ;main.c: 133: 
  1606  0472  1112               	bcf	18,2	;volatile
  1607                           
  1608                           ;main.c: 134:            }
  1609  0473  1107               	bcf	7,2	;volatile
  1610  0474  2C30               	goto	l2784
  1611  0475                     l2806:
  1612  0475  1283               	bcf	3,5	;RP0=0, select bank0
  1613  0476  1303               	bcf	3,6	;RP1=0, select bank0
  1614  0477  0843               	movf	_screen_flag,w
  1615  0478  00B2               	movwf	??_main
  1616  0479  01B3               	clrf	??_main+1
  1617                           
  1618                           ; Switch on 2 bytes has been partitioned into a top level switch of size 1, and 1 sub-sw
      +                          itches
  1619                           ; Switch size 1, requested type "simple"
  1620                           ; Number of cases is 1, Range of values is 0 to 0
  1621                           ; switch strategies available:
  1622                           ; Name         Instructions Cycles
  1623                           ; simple_byte            4     3 (average)
  1624                           ; direct_byte           11     8 (fixed)
  1625                           ; jumptable            260     6 (fixed)
  1626                           ;	Chosen strategy is simple_byte
  1627  047A  0833               	movf	??_main+1,w
  1628  047B  3A00               	xorlw	0	; case 0
  1629  047C  1903               	skipnz
  1630  047D  2C7F               	goto	l2846
  1631  047E  2C9C               	goto	l2808
  1632  047F                     l2846:
  1633                           
  1634                           ; Switch size 1, requested type "simple"
  1635                           ; Number of cases is 9, Range of values is 16 to 144
  1636                           ; switch strategies available:
  1637                           ; Name         Instructions Cycles
  1638                           ; simple_byte           28    15 (average)
  1639                           ; jumptable            263     9 (fixed)
  1640                           ;	Chosen strategy is simple_byte
  1641  047F  0832               	movf	??_main,w
  1642  0480  3A10               	xorlw	16	; case 16
  1643  0481  1903               	skipnz
  1644  0482  2C2B               	goto	l2782
  1645  0483  3A30               	xorlw	48	; case 32
  1646  0484  1903               	skipnz
  1647  0485  2C3C               	goto	l2788
  1648  0486  3A10               	xorlw	16	; case 48
  1649  0487  1903               	skipnz
  1650  0488  2C42               	goto	l2790
  1651  0489  3A70               	xorlw	112	; case 64
  1652  048A  1903               	skipnz
  1653  048B  2C53               	goto	l2794
  1654  048C  3A10               	xorlw	16	; case 80
  1655  048D  1903               	skipnz
  1656  048E  2C5E               	goto	l2796
  1657  048F  3A30               	xorlw	48	; case 96
  1658  0490  1903               	skipnz
  1659  0491  2C69               	goto	l2798
  1660  0492  3A10               	xorlw	16	; case 112
  1661  0493  1903               	skipnz
  1662  0494  2C4D               	goto	l2792
  1663  0495  3AF0               	xorlw	240	; case 128
  1664  0496  1903               	skipnz
  1665  0497  2C6F               	goto	l113
  1666  0498  3A10               	xorlw	16	; case 144
  1667  0499  1903               	skipnz
  1668  049A  2C72               	goto	l114
  1669  049B  2C9C               	goto	l2808
  1670  049C                     l2808:
  1671  049C  30FF               	movlw	255
  1672  049D  1283               	bcf	3,5	;RP0=0, select bank0
  1673  049E  1303               	bcf	3,6	;RP1=0, select bank0
  1674  049F  00B2               	movwf	??_main
  1675  04A0  0832               	movf	??_main,w
  1676  04A1  00B5               	movwf	main@reset_flag
  1677  04A2  2B6E               	goto	l2722
  1678  04A3  120A  118A  280C   	ljmp	start
  1679  04A6                     __end_of_main:
  1680                           
  1681                           	psect	text1
  1682  01F5                     __ptext1:	
  1683 ;; *************** function _set_time *****************
  1684 ;; Defined at:
  1685 ;;		line 38 in file "micro_oven.c"
  1686 ;; Parameters:    Size  Location     Type
  1687 ;;  key             1    wreg     unsigned char 
  1688 ;;  reset_flag      1   13[BANK0 ] unsigned char 
  1689 ;; Auto vars:     Size  Location     Type
  1690 ;;  key             1   17[BANK0 ] unsigned char 
  1691 ;; Return value:  Size  Location     Type
  1692 ;;                  1    wreg      void 
  1693 ;; Registers used:
  1694 ;;		wreg, fsr0l, fsr0h, status,2, status,0, pclath, cstack
  1695 ;; Tracked objects:
  1696 ;;		On entry : 0/0
  1697 ;;		On exit  : 0/0
  1698 ;;		Unchanged: 0/0
  1699 ;; Data sizes:     COMMON   BANK0   BANK1   BANK3   BANK2
  1700 ;;      Params:         0       1       0       0       0
  1701 ;;      Locals:         0       1       0       0       0
  1702 ;;      Temps:          0       3       0       0       0
  1703 ;;      Totals:         0       5       0       0       0
  1704 ;;Total ram usage:        5 bytes
  1705 ;; Hardware stack levels used: 1
  1706 ;; Hardware stack levels required when called: 3
  1707 ;; This function calls:
  1708 ;;		___awdiv
  1709 ;;		___awmod
  1710 ;;		___bmul
  1711 ;;		_clcd_print
  1712 ;;		_clcd_putch
  1713 ;;		_clear_screen
  1714 ;; This function is called by:
  1715 ;;		_main
  1716 ;; This function uses a non-reentrant model
  1717 ;;
  1718                           
  1719  01F5                     _set_time:	
  1720                           ;psect for function _set_time
  1721                           
  1722                           
  1723                           ;incstack = 0
  1724                           ; Regs used in _set_time: [wreg-fsr0h+status,2+status,0+pclath+cstack]
  1725                           ;set_time@key stored from wreg
  1726  01F5  1283               	bcf	3,5	;RP0=0, select bank0
  1727  01F6  1303               	bcf	3,6	;RP1=0, select bank0
  1728  01F7  00B1               	movwf	set_time@key
  1729  01F8                     l2550:
  1730                           
  1731                           ;micro_oven.c: 38:  void set_time(unsigned char key,unsigned char reset_flag );micro_ove
      +                          n.c: 39:  {;micro_oven.c: 40:      static unsigned char blink_pos = 0;;micro_oven.c: 41:
      +                                static unsigned char key_count = 0;;micro_oven.c: 42:      static unsigned char de
      +                          lay,display_blank ;;micro_oven.c: 43:      if(reset_flag == 0x31 )
  1732  01F8  3031               	movlw	49
  1733  01F9  062D               	xorwf	set_time@reset_flag,w
  1734  01FA  1D03               	btfss	3,2
  1735  01FB  29FD               	goto	u2431
  1736  01FC  29FE               	goto	u2430
  1737  01FD                     u2431:
  1738  01FD  2A03               	goto	l2554
  1739  01FE                     u2430:
  1740  01FE                     l2552:
  1741                           
  1742                           ;micro_oven.c: 44:      {;micro_oven.c: 45:          sec = 0;
  1743  01FE  01C2               	clrf	_sec
  1744                           
  1745                           ;micro_oven.c: 46:          min = 0;
  1746  01FF  01C1               	clrf	_min
  1747                           
  1748                           ;micro_oven.c: 47:          key = 0;
  1749  0200  01B1               	clrf	set_time@key
  1750                           
  1751                           ;micro_oven.c: 48:          key_count = 0;
  1752  0201  01BE               	clrf	set_time@key_count
  1753                           
  1754                           ;micro_oven.c: 49:          blink_pos = 0;
  1755  0202  01BF               	clrf	set_time@blink_pos
  1756  0203                     l2554:
  1757                           
  1758                           ;micro_oven.c: 52:      clcd_print("SET TIME (MM:SS)",(0x80 + 0));
  1759  0203  3080               	movlw	128
  1760  0204  00AE               	movwf	??_set_time
  1761  0205  082E               	movf	??_set_time,w
  1762  0206  00F7               	movwf	clcd_print@addr
  1763  0207  3001               	movlw	(low ((STR_8-__stringbase)| (0+32768)))& (0+255)
  1764  0208  120A  158A  25A2  120A  118A  	fcall	_clcd_print
  1765  020D                     l2556:
  1766                           
  1767                           ;micro_oven.c: 53:      clcd_print("TIME:",(0xC0 + 0));
  1768  020D  30C0               	movlw	192
  1769  020E  1283               	bcf	3,5	;RP0=0, select bank0
  1770  020F  1303               	bcf	3,6	;RP1=0, select bank0
  1771  0210  00AE               	movwf	??_set_time
  1772  0211  082E               	movf	??_set_time,w
  1773  0212  00F7               	movwf	clcd_print@addr
  1774  0213  30D4               	movlw	(low ((STR_9-__stringbase)| (0+32768)))& (0+255)
  1775  0214  120A  158A  25A2  120A  118A  	fcall	_clcd_print
  1776  0219                     l2558:
  1777                           
  1778                           ;micro_oven.c: 54:      clcd_putch(':', (0xC0 + 7));
  1779  0219  30C7               	movlw	199
  1780  021A  1283               	bcf	3,5	;RP0=0, select bank0
  1781  021B  1303               	bcf	3,6	;RP1=0, select bank0
  1782  021C  00AE               	movwf	??_set_time
  1783  021D  082E               	movf	??_set_time,w
  1784  021E  00AB               	movwf	clcd_putch@addr
  1785  021F  303A               	movlw	58
  1786  0220  120A  158A  2528  120A  118A  	fcall	_clcd_putch
  1787  0225                     l2560:
  1788                           
  1789                           ;micro_oven.c: 57:      clcd_print("*:CLEAR #:ENTER", (0xD0 + 0));
  1790  0225  30D0               	movlw	208
  1791  0226  1283               	bcf	3,5	;RP0=0, select bank0
  1792  0227  1303               	bcf	3,6	;RP1=0, select bank0
  1793  0228  00AE               	movwf	??_set_time
  1794  0229  082E               	movf	??_set_time,w
  1795  022A  00F7               	movwf	clcd_print@addr
  1796  022B  3012               	movlw	(low ((STR_10-__stringbase)| (0+32768)))& (0+255)
  1797  022C  120A  158A  25A2  120A  118A  	fcall	_clcd_print
  1798  0231                     l2562:
  1799                           
  1800                           ;micro_oven.c: 62:      if(key != '*' && key != '#' && key != 0xFF )
  1801  0231  302A               	movlw	42
  1802  0232  1283               	bcf	3,5	;RP0=0, select bank0
  1803  0233  1303               	bcf	3,6	;RP1=0, select bank0
  1804  0234  0631               	xorwf	set_time@key,w
  1805  0235  1903               	btfsc	3,2
  1806  0236  2A38               	goto	u2441
  1807  0237  2A39               	goto	u2440
  1808  0238                     u2441:
  1809  0238  2A79               	goto	l2582
  1810  0239                     u2440:
  1811  0239                     l2564:
  1812  0239  3023               	movlw	35
  1813  023A  0631               	xorwf	set_time@key,w
  1814  023B  1903               	btfsc	3,2
  1815  023C  2A3E               	goto	u2451
  1816  023D  2A3F               	goto	u2450
  1817  023E                     u2451:
  1818  023E  2A79               	goto	l2582
  1819  023F                     u2450:
  1820  023F                     l2566:
  1821  023F  0A31               	incf	set_time@key,w
  1822  0240  1903               	btfsc	3,2
  1823  0241  2A43               	goto	u2461
  1824  0242  2A44               	goto	u2460
  1825  0243                     u2461:
  1826  0243  2A79               	goto	l2582
  1827  0244                     u2460:
  1828  0244                     l2568:
  1829                           
  1830                           ;micro_oven.c: 63:      {;micro_oven.c: 64:          key_count++;
  1831  0244  3001               	movlw	1
  1832  0245  00AE               	movwf	??_set_time
  1833  0246  082E               	movf	??_set_time,w
  1834  0247  07BE               	addwf	set_time@key_count,f
  1835  0248                     l2570:
  1836                           
  1837                           ;micro_oven.c: 65:          if(key_count <= 3)
  1838  0248  3004               	movlw	4
  1839  0249  023E               	subwf	set_time@key_count,w
  1840  024A  1803               	skipnc
  1841  024B  2A4D               	goto	u2471
  1842  024C  2A4E               	goto	u2470
  1843  024D                     u2471:
  1844  024D  2A60               	goto	l2576
  1845  024E                     u2470:
  1846  024E                     l2572:
  1847                           
  1848                           ;micro_oven.c: 66:          {;micro_oven.c: 67:              sec = sec * 10 + key;
  1849  024E  300A               	movlw	10
  1850  024F  00AE               	movwf	??_set_time
  1851  0250  082E               	movf	??_set_time,w
  1852  0251  00F3               	movwf	___bmul@multiplicand
  1853  0252  0842               	movf	_sec,w
  1854  0253  120A  118A  25E5  120A  118A  	fcall	___bmul
  1855  0258  1283               	bcf	3,5	;RP0=0, select bank0
  1856  0259  1303               	bcf	3,6	;RP1=0, select bank0
  1857  025A  0731               	addwf	set_time@key,w
  1858  025B  00AF               	movwf	??_set_time+1
  1859  025C  082F               	movf	??_set_time+1,w
  1860  025D  00C2               	movwf	_sec
  1861  025E                     l2574:
  1862                           
  1863                           ;micro_oven.c: 68:              blink_pos = 0;
  1864  025E  01BF               	clrf	set_time@blink_pos
  1865                           
  1866                           ;micro_oven.c: 69:          }
  1867  025F  2AA5               	goto	l2604
  1868  0260                     l2576:
  1869  0260  3006               	movlw	6
  1870  0261  023E               	subwf	set_time@key_count,w
  1871  0262  1803               	skipnc
  1872  0263  2A65               	goto	u2481
  1873  0264  2A66               	goto	u2480
  1874  0265                     u2481:
  1875  0265  2AA5               	goto	l2604
  1876  0266                     u2480:
  1877  0266                     l2578:
  1878                           
  1879                           ;micro_oven.c: 71:          {;micro_oven.c: 72:              min = min * 10 + key;
  1880  0266  300A               	movlw	10
  1881  0267  00AE               	movwf	??_set_time
  1882  0268  082E               	movf	??_set_time,w
  1883  0269  00F3               	movwf	___bmul@multiplicand
  1884  026A  0841               	movf	_min,w
  1885  026B  120A  118A  25E5  120A  118A  	fcall	___bmul
  1886  0270  1283               	bcf	3,5	;RP0=0, select bank0
  1887  0271  1303               	bcf	3,6	;RP1=0, select bank0
  1888  0272  0731               	addwf	set_time@key,w
  1889  0273  00AF               	movwf	??_set_time+1
  1890  0274  082F               	movf	??_set_time+1,w
  1891  0275  00C1               	movwf	_min
  1892  0276                     l2580:
  1893                           
  1894                           ;micro_oven.c: 73:              blink_pos = 1;
  1895  0276  01BF               	clrf	set_time@blink_pos
  1896  0277  0ABF               	incf	set_time@blink_pos,f
  1897  0278  2AA5               	goto	l2604
  1898  0279                     l2582:
  1899  0279  302A               	movlw	42
  1900  027A  0631               	xorwf	set_time@key,w
  1901  027B  1D03               	btfss	3,2
  1902  027C  2A7E               	goto	u2491
  1903  027D  2A7F               	goto	u2490
  1904  027E                     u2491:
  1905  027E  2A92               	goto	l2594
  1906  027F                     u2490:
  1907  027F                     l2584:
  1908                           
  1909                           ;micro_oven.c: 79:      {;micro_oven.c: 80:          if(blink_pos == 0)
  1910  027F  083F               	movf	set_time@blink_pos,w
  1911  0280  1D03               	btfss	3,2
  1912  0281  2A83               	goto	u2501
  1913  0282  2A84               	goto	u2500
  1914  0283                     u2501:
  1915  0283  2A87               	goto	l2588
  1916  0284                     u2500:
  1917  0284                     l2586:
  1918                           
  1919                           ;micro_oven.c: 81:          {;micro_oven.c: 82:              sec = 0;
  1920  0284  01C2               	clrf	_sec
  1921                           
  1922                           ;micro_oven.c: 83:              key_count = 0;
  1923  0285  01BE               	clrf	set_time@key_count
  1924                           
  1925                           ;micro_oven.c: 84:          }
  1926  0286  2AA5               	goto	l2604
  1927  0287                     l2588:
  1928  0287  033F               	decf	set_time@blink_pos,w
  1929  0288  1D03               	btfss	3,2
  1930  0289  2A8B               	goto	u2511
  1931  028A  2A8C               	goto	u2510
  1932  028B                     u2511:
  1933  028B  2AA5               	goto	l2604
  1934  028C                     u2510:
  1935  028C                     l2590:
  1936                           
  1937                           ;micro_oven.c: 86:          {;micro_oven.c: 87:              min = 0;
  1938  028C  01C1               	clrf	_min
  1939  028D                     l2592:
  1940                           
  1941                           ;micro_oven.c: 88:              key_count = 2;
  1942  028D  3002               	movlw	2
  1943  028E  00AE               	movwf	??_set_time
  1944  028F  082E               	movf	??_set_time,w
  1945  0290  00BE               	movwf	set_time@key_count
  1946  0291  2AA5               	goto	l2604
  1947  0292                     l2594:
  1948  0292  3023               	movlw	35
  1949  0293  0631               	xorwf	set_time@key,w
  1950  0294  1D03               	btfss	3,2
  1951  0295  2A97               	goto	u2521
  1952  0296  2A98               	goto	u2520
  1953  0297                     u2521:
  1954  0297  2AA5               	goto	l2604
  1955  0298                     u2520:
  1956  0298                     l2596:
  1957                           
  1958                           ;micro_oven.c: 94:      {;micro_oven.c: 95:          clear_screen();
  1959  0298  120A  158A  2516  120A  118A  	fcall	_clear_screen
  1960  029D                     l2598:
  1961                           
  1962                           ;micro_oven.c: 97:          RC2 = 1;
  1963  029D  1283               	bcf	3,5	;RP0=0, select bank0
  1964  029E  1303               	bcf	3,6	;RP1=0, select bank0
  1965  029F  1507               	bsf	7,2	;volatile
  1966  02A0                     l2600:
  1967                           
  1968                           ;micro_oven.c: 99:          TMR2ON = 1;
  1969  02A0  1512               	bsf	18,2	;volatile
  1970  02A1                     l2602:
  1971                           
  1972                           ;micro_oven.c: 101:          screen_flag = 0x70;
  1973  02A1  3070               	movlw	112
  1974  02A2  00AE               	movwf	??_set_time
  1975  02A3  082E               	movf	??_set_time,w
  1976  02A4  00C3               	movwf	_screen_flag
  1977  02A5                     l2604:
  1978                           
  1979                           ;micro_oven.c: 103:      if(delay++ == 10)
  1980  02A5  3001               	movlw	1
  1981  02A6  00AE               	movwf	??_set_time
  1982  02A7  082E               	movf	??_set_time,w
  1983  02A8  07BD               	addwf	set_time@delay,f
  1984  02A9  300B               	movlw	11
  1985  02AA  063D               	xorwf	set_time@delay,w
  1986  02AB  1D03               	btfss	3,2
  1987  02AC  2AAE               	goto	u2531
  1988  02AD  2AAF               	goto	u2530
  1989  02AE                     u2531:
  1990  02AE  2ABA               	goto	l2610
  1991  02AF                     u2530:
  1992  02AF                     l2606:
  1993                           
  1994                           ;micro_oven.c: 104:      {;micro_oven.c: 105:          delay = 0;
  1995  02AF  01BD               	clrf	set_time@delay
  1996  02B0                     l2608:
  1997                           
  1998                           ;micro_oven.c: 106:          display_blank = !display_blank;
  1999  02B0  083C               	movf	set_time@display_blank,w
  2000  02B1  1903               	btfsc	3,2
  2001  02B2  2AB4               	goto	u2541
  2002  02B3  2AB6               	goto	u2540
  2003  02B4                     u2541:
  2004  02B4  3001               	movlw	1
  2005  02B5  2AB7               	goto	u2550
  2006  02B6                     u2540:
  2007  02B6  3000               	movlw	0
  2008  02B7                     u2550:
  2009  02B7  00AE               	movwf	??_set_time
  2010  02B8  082E               	movf	??_set_time,w
  2011  02B9  00BC               	movwf	set_time@display_blank
  2012  02BA                     l2610:
  2013                           
  2014                           ;micro_oven.c: 108:      if(display_blank)
  2015  02BA  083C               	movf	set_time@display_blank,w
  2016  02BB  1903               	btfsc	3,2
  2017  02BC  2ABE               	goto	u2561
  2018  02BD  2ABF               	goto	u2560
  2019  02BE                     u2561:
  2020  02BE  2AF2               	goto	l2618
  2021  02BF                     u2560:
  2022  02BF                     l2612:
  2023                           
  2024                           ;micro_oven.c: 109:      {;micro_oven.c: 110:           if(blink_pos == 0)
  2025  02BF  083F               	movf	set_time@blink_pos,w
  2026  02C0  1D03               	btfss	3,2
  2027  02C1  2AC3               	goto	u2571
  2028  02C2  2AC4               	goto	u2570
  2029  02C3                     u2571:
  2030  02C3  2ADB               	goto	l2616
  2031  02C4                     u2570:
  2032  02C4                     l2614:
  2033                           
  2034                           ;micro_oven.c: 111:           {;micro_oven.c: 112:              clcd_putch(' ', (0xC0 + 
      +                          8));
  2035  02C4  30C8               	movlw	200
  2036  02C5  00AE               	movwf	??_set_time
  2037  02C6  082E               	movf	??_set_time,w
  2038  02C7  00AB               	movwf	clcd_putch@addr
  2039  02C8  3020               	movlw	32
  2040  02C9  120A  158A  2528  120A  118A  	fcall	_clcd_putch
  2041                           
  2042                           ;micro_oven.c: 113:               clcd_putch(' ', (0xC0 + 9));
  2043  02CE  30C9               	movlw	201
  2044  02CF  1283               	bcf	3,5	;RP0=0, select bank0
  2045  02D0  1303               	bcf	3,6	;RP1=0, select bank0
  2046  02D1  00AE               	movwf	??_set_time
  2047  02D2  082E               	movf	??_set_time,w
  2048  02D3  00AB               	movwf	clcd_putch@addr
  2049  02D4  3020               	movlw	32
  2050  02D5  120A  158A  2528  120A  118A  	fcall	_clcd_putch
  2051                           
  2052                           ;micro_oven.c: 114:           }
  2053  02DA  2B68               	goto	l251
  2054  02DB                     l2616:
  2055                           
  2056                           ;micro_oven.c: 116:           {;micro_oven.c: 117:              clcd_putch(' ', (0xC0 + 
      +                          5));
  2057  02DB  30C5               	movlw	197
  2058  02DC  00AE               	movwf	??_set_time
  2059  02DD  082E               	movf	??_set_time,w
  2060  02DE  00AB               	movwf	clcd_putch@addr
  2061  02DF  3020               	movlw	32
  2062  02E0  120A  158A  2528  120A  118A  	fcall	_clcd_putch
  2063                           
  2064                           ;micro_oven.c: 118:              clcd_putch(' ', (0xC0 + 6));
  2065  02E5  30C6               	movlw	198
  2066  02E6  1283               	bcf	3,5	;RP0=0, select bank0
  2067  02E7  1303               	bcf	3,6	;RP1=0, select bank0
  2068  02E8  00AE               	movwf	??_set_time
  2069  02E9  082E               	movf	??_set_time,w
  2070  02EA  00AB               	movwf	clcd_putch@addr
  2071  02EB  3020               	movlw	32
  2072  02EC  120A  158A  2528  120A  118A  	fcall	_clcd_putch
  2073  02F1  2B68               	goto	l251
  2074  02F2                     l2618:
  2075                           
  2076                           ;micro_oven.c: 122:      {;micro_oven.c: 123:          clcd_putch( sec / 10 +'0', (0xC0 
      +                          + 8));
  2077  02F2  30C8               	movlw	200
  2078  02F3  00AE               	movwf	??_set_time
  2079  02F4  082E               	movf	??_set_time,w
  2080  02F5  00AB               	movwf	clcd_putch@addr
  2081  02F6  300A               	movlw	10
  2082  02F7  00F3               	movwf	___awdiv@divisor
  2083  02F8  3000               	movlw	0
  2084  02F9  00F4               	movwf	___awdiv@divisor+1
  2085  02FA  0842               	movf	_sec,w
  2086  02FB  00AF               	movwf	??_set_time+1
  2087  02FC  01B0               	clrf	??_set_time+2
  2088  02FD  082F               	movf	??_set_time+1,w
  2089  02FE  00F5               	movwf	___awdiv@dividend
  2090  02FF  0830               	movf	??_set_time+2,w
  2091  0300  00F6               	movwf	___awdiv@dividend+1
  2092  0301  120A  158A  26B0  120A  118A  	fcall	___awdiv
  2093  0306  0873               	movf	?___awdiv,w
  2094  0307  3E30               	addlw	48
  2095  0308  120A  158A  2528  120A  118A  	fcall	_clcd_putch
  2096                           
  2097                           ;micro_oven.c: 124:          clcd_putch( sec % 10 +'0', (0xC0 + 9));
  2098  030D  30C9               	movlw	201
  2099  030E  1283               	bcf	3,5	;RP0=0, select bank0
  2100  030F  1303               	bcf	3,6	;RP1=0, select bank0
  2101  0310  00AE               	movwf	??_set_time
  2102  0311  082E               	movf	??_set_time,w
  2103  0312  00AB               	movwf	clcd_putch@addr
  2104  0313  300A               	movlw	10
  2105  0314  00A4               	movwf	___awmod@divisor
  2106  0315  3000               	movlw	0
  2107  0316  00A5               	movwf	___awmod@divisor+1
  2108  0317  0842               	movf	_sec,w
  2109  0318  00AF               	movwf	??_set_time+1
  2110  0319  01B0               	clrf	??_set_time+2
  2111  031A  082F               	movf	??_set_time+1,w
  2112  031B  00A6               	movwf	___awmod@dividend
  2113  031C  0830               	movf	??_set_time+2,w
  2114  031D  00A7               	movwf	___awmod@dividend+1
  2115  031E  120A  118A  27A0  120A  118A  	fcall	___awmod
  2116  0323  1283               	bcf	3,5	;RP0=0, select bank0
  2117  0324  1303               	bcf	3,6	;RP1=0, select bank0
  2118  0325  0824               	movf	?___awmod,w
  2119  0326  3E30               	addlw	48
  2120  0327  120A  158A  2528  120A  118A  	fcall	_clcd_putch
  2121                           
  2122                           ;micro_oven.c: 127:           clcd_putch( min / 10 +'0', (0xC0 + 5));
  2123  032C  30C5               	movlw	197
  2124  032D  1283               	bcf	3,5	;RP0=0, select bank0
  2125  032E  1303               	bcf	3,6	;RP1=0, select bank0
  2126  032F  00AE               	movwf	??_set_time
  2127  0330  082E               	movf	??_set_time,w
  2128  0331  00AB               	movwf	clcd_putch@addr
  2129  0332  300A               	movlw	10
  2130  0333  00F3               	movwf	___awdiv@divisor
  2131  0334  3000               	movlw	0
  2132  0335  00F4               	movwf	___awdiv@divisor+1
  2133  0336  0841               	movf	_min,w
  2134  0337  00AF               	movwf	??_set_time+1
  2135  0338  01B0               	clrf	??_set_time+2
  2136  0339  082F               	movf	??_set_time+1,w
  2137  033A  00F5               	movwf	___awdiv@dividend
  2138  033B  0830               	movf	??_set_time+2,w
  2139  033C  00F6               	movwf	___awdiv@dividend+1
  2140  033D  120A  158A  26B0  120A  118A  	fcall	___awdiv
  2141  0342  0873               	movf	?___awdiv,w
  2142  0343  3E30               	addlw	48
  2143  0344  120A  158A  2528  120A  118A  	fcall	_clcd_putch
  2144                           
  2145                           ;micro_oven.c: 128:           clcd_putch( min % 10 +'0', (0xC0 + 6));
  2146  0349  30C6               	movlw	198
  2147  034A  1283               	bcf	3,5	;RP0=0, select bank0
  2148  034B  1303               	bcf	3,6	;RP1=0, select bank0
  2149  034C  00AE               	movwf	??_set_time
  2150  034D  082E               	movf	??_set_time,w
  2151  034E  00AB               	movwf	clcd_putch@addr
  2152  034F  300A               	movlw	10
  2153  0350  00A4               	movwf	___awmod@divisor
  2154  0351  3000               	movlw	0
  2155  0352  00A5               	movwf	___awmod@divisor+1
  2156  0353  0841               	movf	_min,w
  2157  0354  00AF               	movwf	??_set_time+1
  2158  0355  01B0               	clrf	??_set_time+2
  2159  0356  082F               	movf	??_set_time+1,w
  2160  0357  00A6               	movwf	___awmod@dividend
  2161  0358  0830               	movf	??_set_time+2,w
  2162  0359  00A7               	movwf	___awmod@dividend+1
  2163  035A  120A  118A  27A0  120A  118A  	fcall	___awmod
  2164  035F  1283               	bcf	3,5	;RP0=0, select bank0
  2165  0360  1303               	bcf	3,6	;RP1=0, select bank0
  2166  0361  0824               	movf	?___awmod,w
  2167  0362  3E30               	addlw	48
  2168  0363  120A  158A  2528  120A  118A  	fcall	_clcd_putch
  2169  0368                     l251:
  2170  0368  0008               	return
  2171  0369                     __end_of_set_time:
  2172                           
  2173                           	psect	text2
  2174  05E5                     __ptext2:	
  2175 ;; *************** function ___bmul *****************
  2176 ;; Defined at:
  2177 ;;		line 4 in file "C:\Program Files\Microchip\xc8\v2.36\pic\sources\c90\common\Umul8.c"
  2178 ;; Parameters:    Size  Location     Type
  2179 ;;  multiplier      1    wreg     unsigned char 
  2180 ;;  multiplicand    1    3[COMMON] unsigned char 
  2181 ;; Auto vars:     Size  Location     Type
  2182 ;;  multiplier      1    6[COMMON] unsigned char 
  2183 ;;  product         1    5[COMMON] unsigned char 
  2184 ;; Return value:  Size  Location     Type
  2185 ;;                  1    wreg      unsigned char 
  2186 ;; Registers used:
  2187 ;;		wreg, status,2, status,0
  2188 ;; Tracked objects:
  2189 ;;		On entry : 0/0
  2190 ;;		On exit  : 0/0
  2191 ;;		Unchanged: 0/0
  2192 ;; Data sizes:     COMMON   BANK0   BANK1   BANK3   BANK2
  2193 ;;      Params:         1       0       0       0       0
  2194 ;;      Locals:         2       0       0       0       0
  2195 ;;      Temps:          1       0       0       0       0
  2196 ;;      Totals:         4       0       0       0       0
  2197 ;;Total ram usage:        4 bytes
  2198 ;; Hardware stack levels used: 1
  2199 ;; Hardware stack levels required when called: 1
  2200 ;; This function calls:
  2201 ;;		Nothing
  2202 ;; This function is called by:
  2203 ;;		_set_time
  2204 ;; This function uses a non-reentrant model
  2205 ;;
  2206                           
  2207  05E5                     ___bmul:	
  2208                           ;psect for function ___bmul
  2209                           
  2210                           
  2211                           ;incstack = 0
  2212                           ; Regs used in ___bmul: [wreg+status,2+status,0]
  2213                           ;___bmul@multiplier stored from wreg
  2214  05E5  00F6               	movwf	___bmul@multiplier
  2215  05E6                     l2430:
  2216  05E6  01F5               	clrf	___bmul@product
  2217  05E7                     l2432:
  2218  05E7  1C76               	btfss	___bmul@multiplier,0
  2219  05E8  2DEA               	goto	u2231
  2220  05E9  2DEB               	goto	u2230
  2221  05EA                     u2231:
  2222  05EA  2DEF               	goto	l2436
  2223  05EB                     u2230:
  2224  05EB                     l2434:
  2225  05EB  0873               	movf	___bmul@multiplicand,w
  2226  05EC  00F4               	movwf	??___bmul
  2227  05ED  0874               	movf	??___bmul,w
  2228  05EE  07F5               	addwf	___bmul@product,f
  2229  05EF                     l2436:
  2230  05EF  1003               	clrc
  2231  05F0  0DF3               	rlf	___bmul@multiplicand,f
  2232  05F1                     l2438:
  2233  05F1  1003               	clrc
  2234  05F2  0CF6               	rrf	___bmul@multiplier,f
  2235  05F3  0876               	movf	___bmul@multiplier,w
  2236  05F4  1D03               	btfss	3,2
  2237  05F5  2DF7               	goto	u2241
  2238  05F6  2DF8               	goto	u2240
  2239  05F7                     u2241:
  2240  05F7  2DE7               	goto	l2432
  2241  05F8                     u2240:
  2242  05F8                     l2440:
  2243  05F8  0875               	movf	___bmul@product,w
  2244  05F9                     l414:
  2245  05F9  0008               	return
  2246  05FA                     __end_of___bmul:
  2247                           
  2248                           	psect	text3
  2249  002D                     __ptext3:	
  2250 ;; *************** function _set_temp *****************
  2251 ;; Defined at:
  2252 ;;		line 132 in file "micro_oven.c"
  2253 ;; Parameters:    Size  Location     Type
  2254 ;;  key             1    wreg     unsigned char 
  2255 ;;  reset_flag      1   13[BANK0 ] unsigned char 
  2256 ;; Auto vars:     Size  Location     Type
  2257 ;;  key             1   17[BANK0 ] unsigned char 
  2258 ;; Return value:  Size  Location     Type
  2259 ;;                  1    wreg      void 
  2260 ;; Registers used:
  2261 ;;		wreg, fsr0l, fsr0h, status,2, status,0, pclath, cstack
  2262 ;; Tracked objects:
  2263 ;;		On entry : 0/0
  2264 ;;		On exit  : 0/0
  2265 ;;		Unchanged: 0/0
  2266 ;; Data sizes:     COMMON   BANK0   BANK1   BANK3   BANK2
  2267 ;;      Params:         0       1       0       0       0
  2268 ;;      Locals:         0       1       0       0       0
  2269 ;;      Temps:          0       3       0       0       0
  2270 ;;      Totals:         0       5       0       0       0
  2271 ;;Total ram usage:        5 bytes
  2272 ;; Hardware stack levels used: 1
  2273 ;; Hardware stack levels required when called: 3
  2274 ;; This function calls:
  2275 ;;		___awdiv
  2276 ;;		___awmod
  2277 ;;		___lwdiv
  2278 ;;		___lwmod
  2279 ;;		___wmul
  2280 ;;		_clcd_print
  2281 ;;		_clcd_putch
  2282 ;;		_clear_screen
  2283 ;; This function is called by:
  2284 ;;		_main
  2285 ;; This function uses a non-reentrant model
  2286 ;;
  2287                           
  2288  002D                     _set_temp:	
  2289                           ;psect for function _set_temp
  2290                           
  2291                           
  2292                           ;incstack = 0
  2293                           ; Regs used in _set_temp: [wreg-fsr0h+status,2+status,0+pclath+cstack]
  2294                           ;set_temp@key stored from wreg
  2295  002D  1283               	bcf	3,5	;RP0=0, select bank0
  2296  002E  1303               	bcf	3,6	;RP1=0, select bank0
  2297  002F  00B1               	movwf	set_temp@key
  2298  0030                     l2656:
  2299                           
  2300                           ;micro_oven.c: 132:   void set_temp(unsigned char key , unsigned char reset_flag);micro_
      +                          oven.c: 133:   {;micro_oven.c: 135:      static unsigned char key_count = 0;;micro_oven.
      +                          c: 136:      static unsigned char delay,display_blank ;;micro_oven.c: 137:      if(reset
      +                          _flag == 0x31 )
  2301  0030  3031               	movlw	49
  2302  0031  062D               	xorwf	set_temp@reset_flag,w
  2303  0032  1D03               	btfss	3,2
  2304  0033  2835               	goto	u2601
  2305  0034  2836               	goto	u2600
  2306  0035                     u2601:
  2307  0035  283A               	goto	l2660
  2308  0036                     u2600:
  2309  0036                     l2658:
  2310                           
  2311                           ;micro_oven.c: 138:      {;micro_oven.c: 139:          temp = 0;
  2312  0036  01B7               	clrf	_temp
  2313  0037  01B8               	clrf	_temp+1
  2314                           
  2315                           ;micro_oven.c: 140:          key = 0;
  2316  0038  01B1               	clrf	set_temp@key
  2317                           
  2318                           ;micro_oven.c: 141:          key_count = 0;
  2319  0039  01BB               	clrf	set_temp@key_count
  2320  003A                     l2660:
  2321                           
  2322                           ;micro_oven.c: 143:       if(delay++ == 5)
  2323  003A  3001               	movlw	1
  2324  003B  00AE               	movwf	??_set_temp
  2325  003C  082E               	movf	??_set_temp,w
  2326  003D  07BA               	addwf	set_temp@delay,f
  2327  003E  3006               	movlw	6
  2328  003F  063A               	xorwf	set_temp@delay,w
  2329  0040  1D03               	btfss	3,2
  2330  0041  2843               	goto	u2611
  2331  0042  2844               	goto	u2610
  2332  0043                     u2611:
  2333  0043  284F               	goto	l2666
  2334  0044                     u2610:
  2335  0044                     l2662:
  2336                           
  2337                           ;micro_oven.c: 144:      {;micro_oven.c: 145:          delay = 0;
  2338  0044  01BA               	clrf	set_temp@delay
  2339  0045                     l2664:
  2340                           
  2341                           ;micro_oven.c: 146:          display_blank = !display_blank;
  2342  0045  0839               	movf	set_temp@display_blank,w
  2343  0046  1903               	btfsc	3,2
  2344  0047  2849               	goto	u2621
  2345  0048  284B               	goto	u2620
  2346  0049                     u2621:
  2347  0049  3001               	movlw	1
  2348  004A  284C               	goto	u2630
  2349  004B                     u2620:
  2350  004B  3000               	movlw	0
  2351  004C                     u2630:
  2352  004C  00AE               	movwf	??_set_temp
  2353  004D  082E               	movf	??_set_temp,w
  2354  004E  00B9               	movwf	set_temp@display_blank
  2355  004F                     l2666:
  2356                           
  2357                           ;micro_oven.c: 150:      clcd_print("SET TEMP <*C>",(0x80 + 0));
  2358  004F  3080               	movlw	128
  2359  0050  00AE               	movwf	??_set_temp
  2360  0051  082E               	movf	??_set_temp,w
  2361  0052  00F7               	movwf	clcd_print@addr
  2362  0053  3050               	movlw	(low ((STR_11-__stringbase)| (0+32768)))& (0+255)
  2363  0054  120A  158A  25A2  120A  118A  	fcall	_clcd_print
  2364  0059                     l2668:
  2365                           
  2366                           ;micro_oven.c: 151:      clcd_print("TEMP=",(0xC0 + 0));
  2367  0059  30C0               	movlw	192
  2368  005A  1283               	bcf	3,5	;RP0=0, select bank0
  2369  005B  1303               	bcf	3,6	;RP1=0, select bank0
  2370  005C  00AE               	movwf	??_set_temp
  2371  005D  082E               	movf	??_set_temp,w
  2372  005E  00F7               	movwf	clcd_print@addr
  2373  005F  30DA               	movlw	(low ((STR_12-__stringbase)| (0+32768)))& (0+255)
  2374  0060  120A  158A  25A2  120A  118A  	fcall	_clcd_print
  2375  0065                     l2670:
  2376                           
  2377                           ;micro_oven.c: 152:      clcd_print("*:CLEAR #:ENTER", (0xD0 + 0));
  2378  0065  30D0               	movlw	208
  2379  0066  1283               	bcf	3,5	;RP0=0, select bank0
  2380  0067  1303               	bcf	3,6	;RP1=0, select bank0
  2381  0068  00AE               	movwf	??_set_temp
  2382  0069  082E               	movf	??_set_temp,w
  2383  006A  00F7               	movwf	clcd_print@addr
  2384  006B  3012               	movlw	(low ((STR_10-__stringbase)| (0+32768)))& (0+255)
  2385  006C  120A  158A  25A2  120A  118A  	fcall	_clcd_print
  2386  0071                     l2672:
  2387                           
  2388                           ;micro_oven.c: 155:          if(key != '*' && key != '#' && key != 0xFF )
  2389  0071  302A               	movlw	42
  2390  0072  1283               	bcf	3,5	;RP0=0, select bank0
  2391  0073  1303               	bcf	3,6	;RP1=0, select bank0
  2392  0074  0631               	xorwf	set_temp@key,w
  2393  0075  1903               	btfsc	3,2
  2394  0076  2878               	goto	u2641
  2395  0077  2879               	goto	u2640
  2396  0078                     u2641:
  2397  0078  28A6               	goto	l2684
  2398  0079                     u2640:
  2399  0079                     l2674:
  2400  0079  3023               	movlw	35
  2401  007A  0631               	xorwf	set_temp@key,w
  2402  007B  1903               	btfsc	3,2
  2403  007C  287E               	goto	u2651
  2404  007D  287F               	goto	u2650
  2405  007E                     u2651:
  2406  007E  28A6               	goto	l2684
  2407  007F                     u2650:
  2408  007F                     l2676:
  2409  007F  0A31               	incf	set_temp@key,w
  2410  0080  1903               	btfsc	3,2
  2411  0081  2883               	goto	u2661
  2412  0082  2884               	goto	u2660
  2413  0083                     u2661:
  2414  0083  28A6               	goto	l2684
  2415  0084                     u2660:
  2416  0084                     l2678:
  2417                           
  2418                           ;micro_oven.c: 156:      {;micro_oven.c: 157:          key_count++;
  2419  0084  3001               	movlw	1
  2420  0085  00AE               	movwf	??_set_temp
  2421  0086  082E               	movf	??_set_temp,w
  2422  0087  07BB               	addwf	set_temp@key_count,f
  2423  0088                     l2680:
  2424                           
  2425                           ;micro_oven.c: 158:          if(key_count <= 4)
  2426  0088  3005               	movlw	5
  2427  0089  023B               	subwf	set_temp@key_count,w
  2428  008A  1803               	skipnc
  2429  008B  288D               	goto	u2671
  2430  008C  288E               	goto	u2670
  2431  008D                     u2671:
  2432  008D  296D               	goto	l2714
  2433  008E                     u2670:
  2434  008E                     l2682:
  2435                           
  2436                           ;micro_oven.c: 159:          {;micro_oven.c: 160:              temp = temp * 10 + key;
  2437  008E  0838               	movf	_temp+1,w
  2438  008F  00F4               	movwf	___wmul@multiplier+1
  2439  0090  0837               	movf	_temp,w
  2440  0091  00F3               	movwf	___wmul@multiplier
  2441  0092  300A               	movlw	10
  2442  0093  00F5               	movwf	___wmul@multiplicand
  2443  0094  3000               	movlw	0
  2444  0095  00F6               	movwf	___wmul@multiplicand+1
  2445  0096  120A  158A  2577  120A  118A  	fcall	___wmul
  2446  009B  1283               	bcf	3,5	;RP0=0, select bank0
  2447  009C  1303               	bcf	3,6	;RP1=0, select bank0
  2448  009D  0831               	movf	set_temp@key,w
  2449  009E  0773               	addwf	?___wmul,w
  2450  009F  00B7               	movwf	_temp
  2451  00A0  3000               	movlw	0
  2452  00A1  1803               	skipnc
  2453  00A2  3001               	movlw	1
  2454  00A3  0774               	addwf	?___wmul+1,w
  2455  00A4  00B8               	movwf	_temp+1
  2456  00A5  296D               	goto	l2714
  2457  00A6                     l2684:
  2458  00A6  302A               	movlw	42
  2459  00A7  0631               	xorwf	set_temp@key,w
  2460  00A8  1D03               	btfss	3,2
  2461  00A9  28AB               	goto	u2681
  2462  00AA  28AC               	goto	u2680
  2463  00AB                     u2681:
  2464  00AB  28B0               	goto	l2688
  2465  00AC                     u2680:
  2466  00AC                     l2686:
  2467                           
  2468                           ;micro_oven.c: 166:      {;micro_oven.c: 167:          temp = 0;
  2469  00AC  01B7               	clrf	_temp
  2470  00AD  01B8               	clrf	_temp+1
  2471                           
  2472                           ;micro_oven.c: 168:          key_count = 0;
  2473  00AE  01BB               	clrf	set_temp@key_count
  2474                           
  2475                           ;micro_oven.c: 169:      }
  2476  00AF  296D               	goto	l2714
  2477  00B0                     l2688:
  2478  00B0  3023               	movlw	35
  2479  00B1  0631               	xorwf	set_temp@key,w
  2480  00B2  1D03               	btfss	3,2
  2481  00B3  28B5               	goto	u2691
  2482  00B4  28B6               	goto	u2690
  2483  00B5                     u2691:
  2484  00B5  296D               	goto	l2714
  2485  00B6                     u2690:
  2486  00B6                     l2690:
  2487                           
  2488                           ;micro_oven.c: 173:      {;micro_oven.c: 174:          if(temp > 180)
  2489  00B6  3000               	movlw	0
  2490  00B7  0238               	subwf	_temp+1,w
  2491  00B8  30B5               	movlw	181
  2492  00B9  1903               	skipnz
  2493  00BA  0237               	subwf	_temp,w
  2494  00BB  1C03               	skipc
  2495  00BC  28BE               	goto	u2701
  2496  00BD  28BF               	goto	u2700
  2497  00BE                     u2701:
  2498  00BE  28C3               	goto	l2694
  2499  00BF                     u2700:
  2500  00BF                     l2692:
  2501                           
  2502                           ;micro_oven.c: 175:          {;micro_oven.c: 176:              temp = 180;
  2503  00BF  30B4               	movlw	180
  2504  00C0  00B7               	movwf	_temp
  2505  00C1  3000               	movlw	0
  2506  00C2  00B8               	movwf	_temp+1
  2507  00C3                     l2694:
  2508                           
  2509                           ;micro_oven.c: 178:          clear_screen();
  2510  00C3  120A  158A  2516  120A  118A  	fcall	_clear_screen
  2511  00C8                     l2696:
  2512                           
  2513                           ;micro_oven.c: 179:          pre_heat = 60;
  2514  00C8  303C               	movlw	60
  2515  00C9  1283               	bcf	3,5	;RP0=0, select bank0
  2516  00CA  1303               	bcf	3,6	;RP1=0, select bank0
  2517  00CB  00AE               	movwf	??_set_temp
  2518  00CC  082E               	movf	??_set_temp,w
  2519  00CD  00C0               	movwf	_pre_heat
  2520  00CE                     l2698:
  2521                           
  2522                           ;micro_oven.c: 181:          TMR2ON = 1;
  2523  00CE  1512               	bsf	18,2	;volatile
  2524  00CF                     l2700:
  2525                           
  2526                           ;micro_oven.c: 183:          clcd_print("Pre-Heating", (0x80 + 3));
  2527  00CF  3083               	movlw	131
  2528  00D0  00AE               	movwf	??_set_temp
  2529  00D1  082E               	movf	??_set_temp,w
  2530  00D2  00F7               	movwf	clcd_print@addr
  2531  00D3  3084               	movlw	(low ((STR_14-__stringbase)| (0+32768)))& (0+255)
  2532  00D4  120A  158A  25A2  120A  118A  	fcall	_clcd_print
  2533  00D9                     l2702:
  2534                           
  2535                           ;micro_oven.c: 184:          clcd_print("Time Rem:", (0x90 + 0));
  2536  00D9  3090               	movlw	144
  2537  00DA  1283               	bcf	3,5	;RP0=0, select bank0
  2538  00DB  1303               	bcf	3,6	;RP1=0, select bank0
  2539  00DC  00AE               	movwf	??_set_temp
  2540  00DD  082E               	movf	??_set_temp,w
  2541  00DE  00F7               	movwf	clcd_print@addr
  2542  00DF  309B               	movlw	(low ((STR_15-__stringbase)| (0+32768)))& (0+255)
  2543  00E0  120A  158A  25A2  120A  118A  	fcall	_clcd_print
  2544                           
  2545                           ;micro_oven.c: 185:          clcd_putch('s', (0x90 + 12));
  2546  00E5  309C               	movlw	156
  2547  00E6  1283               	bcf	3,5	;RP0=0, select bank0
  2548  00E7  1303               	bcf	3,6	;RP1=0, select bank0
  2549  00E8  00AE               	movwf	??_set_temp
  2550  00E9  082E               	movf	??_set_temp,w
  2551  00EA  00AB               	movwf	clcd_putch@addr
  2552  00EB  3073               	movlw	115
  2553  00EC  120A  158A  2528  120A  118A  	fcall	_clcd_putch
  2554                           
  2555                           ;micro_oven.c: 186:          while(pre_heat)
  2556  00F1  295A               	goto	l2706
  2557  00F2                     l2704:
  2558                           
  2559                           ;micro_oven.c: 187:          {;micro_oven.c: 188:          clcd_putch( pre_heat / 100 + 
      +                          '0', (0x90 + 9));
  2560  00F2  3099               	movlw	153
  2561  00F3  00AE               	movwf	??_set_temp
  2562  00F4  082E               	movf	??_set_temp,w
  2563  00F5  00AB               	movwf	clcd_putch@addr
  2564  00F6  3064               	movlw	100
  2565  00F7  00F3               	movwf	___awdiv@divisor
  2566  00F8  3000               	movlw	0
  2567  00F9  00F4               	movwf	___awdiv@divisor+1
  2568  00FA  0840               	movf	_pre_heat,w
  2569  00FB  00AF               	movwf	??_set_temp+1
  2570  00FC  01B0               	clrf	??_set_temp+2
  2571  00FD  082F               	movf	??_set_temp+1,w
  2572  00FE  00F5               	movwf	___awdiv@dividend
  2573  00FF  0830               	movf	??_set_temp+2,w
  2574  0100  00F6               	movwf	___awdiv@dividend+1
  2575  0101  120A  158A  26B0  120A  118A  	fcall	___awdiv
  2576  0106  0873               	movf	?___awdiv,w
  2577  0107  3E30               	addlw	48
  2578  0108  120A  158A  2528  120A  118A  	fcall	_clcd_putch
  2579                           
  2580                           ;micro_oven.c: 189:          clcd_putch( (pre_heat/10) % 10 +'0', (0x90 + 10));
  2581  010D  309A               	movlw	154
  2582  010E  1283               	bcf	3,5	;RP0=0, select bank0
  2583  010F  1303               	bcf	3,6	;RP1=0, select bank0
  2584  0110  00AE               	movwf	??_set_temp
  2585  0111  082E               	movf	??_set_temp,w
  2586  0112  00AB               	movwf	clcd_putch@addr
  2587  0113  300A               	movlw	10
  2588  0114  00A4               	movwf	___awmod@divisor
  2589  0115  3000               	movlw	0
  2590  0116  00A5               	movwf	___awmod@divisor+1
  2591  0117  300A               	movlw	10
  2592  0118  00F3               	movwf	___awdiv@divisor
  2593  0119  3000               	movlw	0
  2594  011A  00F4               	movwf	___awdiv@divisor+1
  2595  011B  0840               	movf	_pre_heat,w
  2596  011C  00AF               	movwf	??_set_temp+1
  2597  011D  01B0               	clrf	??_set_temp+2
  2598  011E  082F               	movf	??_set_temp+1,w
  2599  011F  00F5               	movwf	___awdiv@dividend
  2600  0120  0830               	movf	??_set_temp+2,w
  2601  0121  00F6               	movwf	___awdiv@dividend+1
  2602  0122  120A  158A  26B0  120A  118A  	fcall	___awdiv
  2603  0127  0874               	movf	?___awdiv+1,w
  2604  0128  1283               	bcf	3,5	;RP0=0, select bank0
  2605  0129  1303               	bcf	3,6	;RP1=0, select bank0
  2606  012A  00A7               	movwf	___awmod@dividend+1
  2607  012B  0873               	movf	?___awdiv,w
  2608  012C  00A6               	movwf	___awmod@dividend
  2609  012D  120A  118A  27A0  120A  118A  	fcall	___awmod
  2610  0132  1283               	bcf	3,5	;RP0=0, select bank0
  2611  0133  1303               	bcf	3,6	;RP1=0, select bank0
  2612  0134  0824               	movf	?___awmod,w
  2613  0135  3E30               	addlw	48
  2614  0136  120A  158A  2528  120A  118A  	fcall	_clcd_putch
  2615                           
  2616                           ;micro_oven.c: 190:          clcd_putch((pre_heat % 10 )+ '0', (0x90 + 11));
  2617  013B  309B               	movlw	155
  2618  013C  1283               	bcf	3,5	;RP0=0, select bank0
  2619  013D  1303               	bcf	3,6	;RP1=0, select bank0
  2620  013E  00AE               	movwf	??_set_temp
  2621  013F  082E               	movf	??_set_temp,w
  2622  0140  00AB               	movwf	clcd_putch@addr
  2623  0141  300A               	movlw	10
  2624  0142  00A4               	movwf	___awmod@divisor
  2625  0143  3000               	movlw	0
  2626  0144  00A5               	movwf	___awmod@divisor+1
  2627  0145  0840               	movf	_pre_heat,w
  2628  0146  00AF               	movwf	??_set_temp+1
  2629  0147  01B0               	clrf	??_set_temp+2
  2630  0148  082F               	movf	??_set_temp+1,w
  2631  0149  00A6               	movwf	___awmod@dividend
  2632  014A  0830               	movf	??_set_temp+2,w
  2633  014B  00A7               	movwf	___awmod@dividend+1
  2634  014C  120A  118A  27A0  120A  118A  	fcall	___awmod
  2635  0151  1283               	bcf	3,5	;RP0=0, select bank0
  2636  0152  1303               	bcf	3,6	;RP1=0, select bank0
  2637  0153  0824               	movf	?___awmod,w
  2638  0154  3E30               	addlw	48
  2639  0155  120A  158A  2528  120A  118A  	fcall	_clcd_putch
  2640  015A                     l2706:
  2641                           
  2642                           ;micro_oven.c: 186:          while(pre_heat)
  2643  015A  1283               	bcf	3,5	;RP0=0, select bank0
  2644  015B  1303               	bcf	3,6	;RP1=0, select bank0
  2645  015C  0840               	movf	_pre_heat,w
  2646  015D  1D03               	btfss	3,2
  2647  015E  2960               	goto	u2711
  2648  015F  2961               	goto	u2710
  2649  0160                     u2711:
  2650  0160  28F2               	goto	l2704
  2651  0161                     u2710:
  2652  0161                     l271:
  2653                           
  2654                           ;micro_oven.c: 192:          TMR2ON = 0;
  2655  0161  1112               	bcf	18,2	;volatile
  2656  0162                     l2708:
  2657                           
  2658                           ;micro_oven.c: 193:           clear_screen();
  2659  0162  120A  158A  2516  120A  118A  	fcall	_clear_screen
  2660  0167                     l2710:
  2661                           
  2662                           ;micro_oven.c: 194:          screen_flag = 0x30;
  2663  0167  3030               	movlw	48
  2664  0168  1283               	bcf	3,5	;RP0=0, select bank0
  2665  0169  1303               	bcf	3,6	;RP1=0, select bank0
  2666  016A  00AE               	movwf	??_set_temp
  2667  016B  082E               	movf	??_set_temp,w
  2668  016C  00C3               	movwf	_screen_flag
  2669  016D                     l2712:
  2670  016D                     l2714:
  2671                           
  2672                           ;micro_oven.c: 199:      if(display_blank)
  2673  016D  0839               	movf	set_temp@display_blank,w
  2674  016E  1903               	btfsc	3,2
  2675  016F  2971               	goto	u2721
  2676  0170  2972               	goto	u2720
  2677  0171                     u2721:
  2678  0171  2995               	goto	l2718
  2679  0172                     u2720:
  2680  0172                     l2716:
  2681                           
  2682                           ;micro_oven.c: 200:      {;micro_oven.c: 201:           clcd_putch(' ', (0xC0 + 7));
  2683  0172  30C7               	movlw	199
  2684  0173  00AE               	movwf	??_set_temp
  2685  0174  082E               	movf	??_set_temp,w
  2686  0175  00AB               	movwf	clcd_putch@addr
  2687  0176  3020               	movlw	32
  2688  0177  120A  158A  2528  120A  118A  	fcall	_clcd_putch
  2689                           
  2690                           ;micro_oven.c: 202:           clcd_putch(' ', (0xC0 + 8));
  2691  017C  30C8               	movlw	200
  2692  017D  1283               	bcf	3,5	;RP0=0, select bank0
  2693  017E  1303               	bcf	3,6	;RP1=0, select bank0
  2694  017F  00AE               	movwf	??_set_temp
  2695  0180  082E               	movf	??_set_temp,w
  2696  0181  00AB               	movwf	clcd_putch@addr
  2697  0182  3020               	movlw	32
  2698  0183  120A  158A  2528  120A  118A  	fcall	_clcd_putch
  2699                           
  2700                           ;micro_oven.c: 203:           clcd_putch(' ', (0xC0 + 9));
  2701  0188  30C9               	movlw	201
  2702  0189  1283               	bcf	3,5	;RP0=0, select bank0
  2703  018A  1303               	bcf	3,6	;RP1=0, select bank0
  2704  018B  00AE               	movwf	??_set_temp
  2705  018C  082E               	movf	??_set_temp,w
  2706  018D  00AB               	movwf	clcd_putch@addr
  2707  018E  3020               	movlw	32
  2708  018F  120A  158A  2528  120A  118A  	fcall	_clcd_putch
  2709                           
  2710                           ;micro_oven.c: 204:      }
  2711  0194  29F4               	goto	l274
  2712  0195                     l2718:
  2713                           
  2714                           ;micro_oven.c: 206:      {;micro_oven.c: 207:          clcd_putch( (temp / 100 )+ '0', (
      +                          0xC0 + 7));
  2715  0195  30C7               	movlw	199
  2716  0196  00AE               	movwf	??_set_temp
  2717  0197  082E               	movf	??_set_temp,w
  2718  0198  00AB               	movwf	clcd_putch@addr
  2719  0199  3064               	movlw	100
  2720  019A  00F3               	movwf	___lwdiv@divisor
  2721  019B  3000               	movlw	0
  2722  019C  00F4               	movwf	___lwdiv@divisor+1
  2723  019D  0838               	movf	_temp+1,w
  2724  019E  00F6               	movwf	___lwdiv@dividend+1
  2725  019F  0837               	movf	_temp,w
  2726  01A0  00F5               	movwf	___lwdiv@dividend
  2727  01A1  120A  118A  259F  120A  118A  	fcall	___lwdiv
  2728  01A6  0873               	movf	?___lwdiv,w
  2729  01A7  3E30               	addlw	48
  2730  01A8  120A  158A  2528  120A  118A  	fcall	_clcd_putch
  2731                           
  2732                           ;micro_oven.c: 208:          clcd_putch( (temp/10) % 10 +'0', (0xC0 + 8));
  2733  01AD  30C8               	movlw	200
  2734  01AE  1283               	bcf	3,5	;RP0=0, select bank0
  2735  01AF  1303               	bcf	3,6	;RP1=0, select bank0
  2736  01B0  00AE               	movwf	??_set_temp
  2737  01B1  082E               	movf	??_set_temp,w
  2738  01B2  00AB               	movwf	clcd_putch@addr
  2739  01B3  300A               	movlw	10
  2740  01B4  00A3               	movwf	___lwmod@divisor
  2741  01B5  3000               	movlw	0
  2742  01B6  00A4               	movwf	___lwmod@divisor+1
  2743  01B7  300A               	movlw	10
  2744  01B8  00F3               	movwf	___lwdiv@divisor
  2745  01B9  3000               	movlw	0
  2746  01BA  00F4               	movwf	___lwdiv@divisor+1
  2747  01BB  0838               	movf	_temp+1,w
  2748  01BC  00F6               	movwf	___lwdiv@dividend+1
  2749  01BD  0837               	movf	_temp,w
  2750  01BE  00F5               	movwf	___lwdiv@dividend
  2751  01BF  120A  118A  259F  120A  118A  	fcall	___lwdiv
  2752  01C4  0874               	movf	?___lwdiv+1,w
  2753  01C5  1283               	bcf	3,5	;RP0=0, select bank0
  2754  01C6  1303               	bcf	3,6	;RP1=0, select bank0
  2755  01C7  00A6               	movwf	___lwmod@dividend+1
  2756  01C8  0873               	movf	?___lwdiv,w
  2757  01C9  00A5               	movwf	___lwmod@dividend
  2758  01CA  120A  158A  2637  120A  118A  	fcall	___lwmod
  2759  01CF  1283               	bcf	3,5	;RP0=0, select bank0
  2760  01D0  1303               	bcf	3,6	;RP1=0, select bank0
  2761  01D1  0823               	movf	?___lwmod,w
  2762  01D2  3E30               	addlw	48
  2763  01D3  120A  158A  2528  120A  118A  	fcall	_clcd_putch
  2764                           
  2765                           ;micro_oven.c: 209:          clcd_putch((temp % 10 )+ '0', (0xC0 + 9));
  2766  01D8  30C9               	movlw	201
  2767  01D9  1283               	bcf	3,5	;RP0=0, select bank0
  2768  01DA  1303               	bcf	3,6	;RP1=0, select bank0
  2769  01DB  00AE               	movwf	??_set_temp
  2770  01DC  082E               	movf	??_set_temp,w
  2771  01DD  00AB               	movwf	clcd_putch@addr
  2772  01DE  300A               	movlw	10
  2773  01DF  00A3               	movwf	___lwmod@divisor
  2774  01E0  3000               	movlw	0
  2775  01E1  00A4               	movwf	___lwmod@divisor+1
  2776  01E2  0838               	movf	_temp+1,w
  2777  01E3  00A6               	movwf	___lwmod@dividend+1
  2778  01E4  0837               	movf	_temp,w
  2779  01E5  00A5               	movwf	___lwmod@dividend
  2780  01E6  120A  158A  2637  120A  118A  	fcall	___lwmod
  2781  01EB  1283               	bcf	3,5	;RP0=0, select bank0
  2782  01EC  1303               	bcf	3,6	;RP1=0, select bank0
  2783  01ED  0823               	movf	?___lwmod,w
  2784  01EE  3E30               	addlw	48
  2785  01EF  120A  158A  2528  120A  118A  	fcall	_clcd_putch
  2786  01F4                     l274:
  2787  01F4  0008               	return
  2788  01F5                     __end_of_set_temp:
  2789                           
  2790                           	psect	text4
  2791  0D77                     __ptext4:	
  2792 ;; *************** function ___wmul *****************
  2793 ;; Defined at:
  2794 ;;		line 15 in file "C:\Program Files\Microchip\xc8\v2.36\pic\sources\c90\common\Umul16.c"
  2795 ;; Parameters:    Size  Location     Type
  2796 ;;  multiplier      2    3[COMMON] unsigned int 
  2797 ;;  multiplicand    2    5[COMMON] unsigned int 
  2798 ;; Auto vars:     Size  Location     Type
  2799 ;;  product         2    0[BANK0 ] unsigned int 
  2800 ;; Return value:  Size  Location     Type
  2801 ;;                  2    3[COMMON] unsigned int 
  2802 ;; Registers used:
  2803 ;;		wreg, status,2, status,0
  2804 ;; Tracked objects:
  2805 ;;		On entry : 0/0
  2806 ;;		On exit  : 0/0
  2807 ;;		Unchanged: 0/0
  2808 ;; Data sizes:     COMMON   BANK0   BANK1   BANK3   BANK2
  2809 ;;      Params:         4       0       0       0       0
  2810 ;;      Locals:         0       2       0       0       0
  2811 ;;      Temps:          0       0       0       0       0
  2812 ;;      Totals:         4       2       0       0       0
  2813 ;;Total ram usage:        6 bytes
  2814 ;; Hardware stack levels used: 1
  2815 ;; Hardware stack levels required when called: 1
  2816 ;; This function calls:
  2817 ;;		Nothing
  2818 ;; This function is called by:
  2819 ;;		_set_temp
  2820 ;; This function uses a non-reentrant model
  2821 ;;
  2822                           
  2823  0D77                     ___wmul:	
  2824                           ;psect for function ___wmul
  2825                           
  2826  0D77                     l2416:	
  2827                           ;incstack = 0
  2828                           ; Regs used in ___wmul: [wreg+status,2+status,0]
  2829                           
  2830  0D77  1283               	bcf	3,5	;RP0=0, select bank0
  2831  0D78  1303               	bcf	3,6	;RP1=0, select bank0
  2832  0D79  01A0               	clrf	___wmul@product
  2833  0D7A  01A1               	clrf	___wmul@product+1
  2834  0D7B                     l2418:
  2835  0D7B  1C73               	btfss	___wmul@multiplier,0
  2836  0D7C  2D7E               	goto	u2191
  2837  0D7D  2D7F               	goto	u2190
  2838  0D7E                     u2191:
  2839  0D7E  2D87               	goto	l388
  2840  0D7F                     u2190:
  2841  0D7F                     l2420:
  2842  0D7F  0875               	movf	___wmul@multiplicand,w
  2843  0D80  1283               	bcf	3,5	;RP0=0, select bank0
  2844  0D81  1303               	bcf	3,6	;RP1=0, select bank0
  2845  0D82  07A0               	addwf	___wmul@product,f
  2846  0D83  1803               	skipnc
  2847  0D84  0AA1               	incf	___wmul@product+1,f
  2848  0D85  0876               	movf	___wmul@multiplicand+1,w
  2849  0D86  07A1               	addwf	___wmul@product+1,f
  2850  0D87                     l388:
  2851  0D87  3001               	movlw	1
  2852  0D88                     u2205:
  2853  0D88  1003               	clrc
  2854  0D89  0DF5               	rlf	___wmul@multiplicand,f
  2855  0D8A  0DF6               	rlf	___wmul@multiplicand+1,f
  2856  0D8B  3EFF               	addlw	-1
  2857  0D8C  1D03               	skipz
  2858  0D8D  2D88               	goto	u2205
  2859  0D8E                     l2422:
  2860  0D8E  3001               	movlw	1
  2861  0D8F                     u2215:
  2862  0D8F  1003               	clrc
  2863  0D90  0CF4               	rrf	___wmul@multiplier+1,f
  2864  0D91  0CF3               	rrf	___wmul@multiplier,f
  2865  0D92  3EFF               	addlw	-1
  2866  0D93  1D03               	skipz
  2867  0D94  2D8F               	goto	u2215
  2868  0D95                     l2424:
  2869  0D95  0873               	movf	___wmul@multiplier,w
  2870  0D96  0474               	iorwf	___wmul@multiplier+1,w
  2871  0D97  1D03               	btfss	3,2
  2872  0D98  2D9A               	goto	u2221
  2873  0D99  2D9B               	goto	u2220
  2874  0D9A                     u2221:
  2875  0D9A  2D7B               	goto	l2418
  2876  0D9B                     u2220:
  2877  0D9B                     l2426:
  2878  0D9B  1283               	bcf	3,5	;RP0=0, select bank0
  2879  0D9C  1303               	bcf	3,6	;RP1=0, select bank0
  2880  0D9D  0821               	movf	___wmul@product+1,w
  2881  0D9E  00F4               	movwf	?___wmul+1
  2882  0D9F  0820               	movf	___wmul@product,w
  2883  0DA0  00F3               	movwf	?___wmul
  2884  0DA1                     l390:
  2885  0DA1  0008               	return
  2886  0DA2                     __end_of___wmul:
  2887                           
  2888                           	psect	text5
  2889  0E37                     __ptext5:	
  2890 ;; *************** function ___lwmod *****************
  2891 ;; Defined at:
  2892 ;;		line 5 in file "C:\Program Files\Microchip\xc8\v2.36\pic\sources\c90\common\lwmod.c"
  2893 ;; Parameters:    Size  Location     Type
  2894 ;;  divisor         2    3[BANK0 ] unsigned int 
  2895 ;;  dividend        2    5[BANK0 ] unsigned int 
  2896 ;; Auto vars:     Size  Location     Type
  2897 ;;  counter         1    8[BANK0 ] unsigned char 
  2898 ;; Return value:  Size  Location     Type
  2899 ;;                  2    3[BANK0 ] unsigned int 
  2900 ;; Registers used:
  2901 ;;		wreg, status,2, status,0
  2902 ;; Tracked objects:
  2903 ;;		On entry : 0/0
  2904 ;;		On exit  : 0/0
  2905 ;;		Unchanged: 0/0
  2906 ;; Data sizes:     COMMON   BANK0   BANK1   BANK3   BANK2
  2907 ;;      Params:         0       4       0       0       0
  2908 ;;      Locals:         0       1       0       0       0
  2909 ;;      Temps:          0       1       0       0       0
  2910 ;;      Totals:         0       6       0       0       0
  2911 ;;Total ram usage:        6 bytes
  2912 ;; Hardware stack levels used: 1
  2913 ;; Hardware stack levels required when called: 1
  2914 ;; This function calls:
  2915 ;;		Nothing
  2916 ;; This function is called by:
  2917 ;;		_set_temp
  2918 ;; This function uses a non-reentrant model
  2919 ;;
  2920                           
  2921  0E37                     ___lwmod:	
  2922                           ;psect for function ___lwmod
  2923                           
  2924  0E37                     l1928:	
  2925                           ;incstack = 0
  2926                           ; Regs used in ___lwmod: [wreg+status,2+status,0]
  2927                           
  2928  0E37  1283               	bcf	3,5	;RP0=0, select bank0
  2929  0E38  1303               	bcf	3,6	;RP1=0, select bank0
  2930  0E39  0823               	movf	___lwmod@divisor,w
  2931  0E3A  0424               	iorwf	___lwmod@divisor+1,w
  2932  0E3B  1903               	btfsc	3,2
  2933  0E3C  2E3E               	goto	u1551
  2934  0E3D  2E3F               	goto	u1550
  2935  0E3E                     u1551:
  2936  0E3E  2E6E               	goto	l1946
  2937  0E3F                     u1550:
  2938  0E3F                     l1930:
  2939  0E3F  01A8               	clrf	___lwmod@counter
  2940  0E40  0AA8               	incf	___lwmod@counter,f
  2941  0E41  2E4D               	goto	l1936
  2942  0E42                     l1932:
  2943  0E42  3001               	movlw	1
  2944  0E43                     u1565:
  2945  0E43  1003               	clrc
  2946  0E44  0DA3               	rlf	___lwmod@divisor,f
  2947  0E45  0DA4               	rlf	___lwmod@divisor+1,f
  2948  0E46  3EFF               	addlw	-1
  2949  0E47  1D03               	skipz
  2950  0E48  2E43               	goto	u1565
  2951  0E49                     l1934:
  2952  0E49  3001               	movlw	1
  2953  0E4A  00A7               	movwf	??___lwmod
  2954  0E4B  0827               	movf	??___lwmod,w
  2955  0E4C  07A8               	addwf	___lwmod@counter,f
  2956  0E4D                     l1936:
  2957  0E4D  1FA4               	btfss	___lwmod@divisor+1,7
  2958  0E4E  2E50               	goto	u1571
  2959  0E4F  2E51               	goto	u1570
  2960  0E50                     u1571:
  2961  0E50  2E42               	goto	l1932
  2962  0E51                     u1570:
  2963  0E51                     l1938:
  2964  0E51  0824               	movf	___lwmod@divisor+1,w
  2965  0E52  0226               	subwf	___lwmod@dividend+1,w
  2966  0E53  1D03               	skipz
  2967  0E54  2E57               	goto	u1585
  2968  0E55  0823               	movf	___lwmod@divisor,w
  2969  0E56  0225               	subwf	___lwmod@dividend,w
  2970  0E57                     u1585:
  2971  0E57  1C03               	skipc
  2972  0E58  2E5A               	goto	u1581
  2973  0E59  2E5B               	goto	u1580
  2974  0E5A                     u1581:
  2975  0E5A  2E61               	goto	l1942
  2976  0E5B                     u1580:
  2977  0E5B                     l1940:
  2978  0E5B  0823               	movf	___lwmod@divisor,w
  2979  0E5C  02A5               	subwf	___lwmod@dividend,f
  2980  0E5D  0824               	movf	___lwmod@divisor+1,w
  2981  0E5E  1C03               	skipc
  2982  0E5F  03A6               	decf	___lwmod@dividend+1,f
  2983  0E60  02A6               	subwf	___lwmod@dividend+1,f
  2984  0E61                     l1942:
  2985  0E61  3001               	movlw	1
  2986  0E62                     u1595:
  2987  0E62  1003               	clrc
  2988  0E63  0CA4               	rrf	___lwmod@divisor+1,f
  2989  0E64  0CA3               	rrf	___lwmod@divisor,f
  2990  0E65  3EFF               	addlw	-1
  2991  0E66  1D03               	skipz
  2992  0E67  2E62               	goto	u1595
  2993  0E68                     l1944:
  2994  0E68  3001               	movlw	1
  2995  0E69  02A8               	subwf	___lwmod@counter,f
  2996  0E6A  1D03               	btfss	3,2
  2997  0E6B  2E6D               	goto	u1601
  2998  0E6C  2E6E               	goto	u1600
  2999  0E6D                     u1601:
  3000  0E6D  2E51               	goto	l1938
  3001  0E6E                     u1600:
  3002  0E6E                     l1946:
  3003  0E6E  0826               	movf	___lwmod@dividend+1,w
  3004  0E6F  00A4               	movwf	?___lwmod+1
  3005  0E70  0825               	movf	___lwmod@dividend,w
  3006  0E71  00A3               	movwf	?___lwmod
  3007  0E72                     l670:
  3008  0E72  0008               	return
  3009  0E73                     __end_of___lwmod:
  3010                           
  3011                           	psect	text6
  3012  059F                     __ptext6:	
  3013 ;; *************** function ___lwdiv *****************
  3014 ;; Defined at:
  3015 ;;		line 5 in file "C:\Program Files\Microchip\xc8\v2.36\pic\sources\c90\common\lwdiv.c"
  3016 ;; Parameters:    Size  Location     Type
  3017 ;;  divisor         2    3[COMMON] unsigned int 
  3018 ;;  dividend        2    5[COMMON] unsigned int 
  3019 ;; Auto vars:     Size  Location     Type
  3020 ;;  quotient        2    1[BANK0 ] unsigned int 
  3021 ;;  counter         1    0[BANK0 ] unsigned char 
  3022 ;; Return value:  Size  Location     Type
  3023 ;;                  2    3[COMMON] unsigned int 
  3024 ;; Registers used:
  3025 ;;		wreg, status,2, status,0
  3026 ;; Tracked objects:
  3027 ;;		On entry : 0/0
  3028 ;;		On exit  : 0/0
  3029 ;;		Unchanged: 0/0
  3030 ;; Data sizes:     COMMON   BANK0   BANK1   BANK3   BANK2
  3031 ;;      Params:         4       0       0       0       0
  3032 ;;      Locals:         0       3       0       0       0
  3033 ;;      Temps:          1       0       0       0       0
  3034 ;;      Totals:         5       3       0       0       0
  3035 ;;Total ram usage:        8 bytes
  3036 ;; Hardware stack levels used: 1
  3037 ;; Hardware stack levels required when called: 1
  3038 ;; This function calls:
  3039 ;;		Nothing
  3040 ;; This function is called by:
  3041 ;;		_set_temp
  3042 ;; This function uses a non-reentrant model
  3043 ;;
  3044                           
  3045  059F                     ___lwdiv:	
  3046                           ;psect for function ___lwdiv
  3047                           
  3048  059F                     l2482:	
  3049                           ;incstack = 0
  3050                           ; Regs used in ___lwdiv: [wreg+status,2+status,0]
  3051                           
  3052  059F  1283               	bcf	3,5	;RP0=0, select bank0
  3053  05A0  1303               	bcf	3,6	;RP1=0, select bank0
  3054  05A1  01A1               	clrf	___lwdiv@quotient
  3055  05A2  01A2               	clrf	___lwdiv@quotient+1
  3056  05A3                     l2484:
  3057  05A3  0873               	movf	___lwdiv@divisor,w
  3058  05A4  0474               	iorwf	___lwdiv@divisor+1,w
  3059  05A5  1903               	btfsc	3,2
  3060  05A6  2DA8               	goto	u2341
  3061  05A7  2DA9               	goto	u2340
  3062  05A8                     u2341:
  3063  05A8  2DE0               	goto	l2504
  3064  05A9                     u2340:
  3065  05A9                     l2486:
  3066  05A9  01A0               	clrf	___lwdiv@counter
  3067  05AA  0AA0               	incf	___lwdiv@counter,f
  3068  05AB  2DB7               	goto	l2492
  3069  05AC                     l2488:
  3070  05AC  3001               	movlw	1
  3071  05AD                     u2355:
  3072  05AD  1003               	clrc
  3073  05AE  0DF3               	rlf	___lwdiv@divisor,f
  3074  05AF  0DF4               	rlf	___lwdiv@divisor+1,f
  3075  05B0  3EFF               	addlw	-1
  3076  05B1  1D03               	skipz
  3077  05B2  2DAD               	goto	u2355
  3078  05B3                     l2490:
  3079  05B3  3001               	movlw	1
  3080  05B4  00F7               	movwf	??___lwdiv
  3081  05B5  0877               	movf	??___lwdiv,w
  3082  05B6  07A0               	addwf	___lwdiv@counter,f
  3083  05B7                     l2492:
  3084  05B7  1FF4               	btfss	___lwdiv@divisor+1,7
  3085  05B8  2DBA               	goto	u2361
  3086  05B9  2DBB               	goto	u2360
  3087  05BA                     u2361:
  3088  05BA  2DAC               	goto	l2488
  3089  05BB                     u2360:
  3090  05BB                     l2494:
  3091  05BB  3001               	movlw	1
  3092  05BC                     u2375:
  3093  05BC  1003               	clrc
  3094  05BD  0DA1               	rlf	___lwdiv@quotient,f
  3095  05BE  0DA2               	rlf	___lwdiv@quotient+1,f
  3096  05BF  3EFF               	addlw	-1
  3097  05C0  1D03               	skipz
  3098  05C1  2DBC               	goto	u2375
  3099  05C2  0874               	movf	___lwdiv@divisor+1,w
  3100  05C3  0276               	subwf	___lwdiv@dividend+1,w
  3101  05C4  1D03               	skipz
  3102  05C5  2DC8               	goto	u2385
  3103  05C6  0873               	movf	___lwdiv@divisor,w
  3104  05C7  0275               	subwf	___lwdiv@dividend,w
  3105  05C8                     u2385:
  3106  05C8  1C03               	skipc
  3107  05C9  2DCB               	goto	u2381
  3108  05CA  2DCC               	goto	u2380
  3109  05CB                     u2381:
  3110  05CB  2DD3               	goto	l2500
  3111  05CC                     u2380:
  3112  05CC                     l2496:
  3113  05CC  0873               	movf	___lwdiv@divisor,w
  3114  05CD  02F5               	subwf	___lwdiv@dividend,f
  3115  05CE  0874               	movf	___lwdiv@divisor+1,w
  3116  05CF  1C03               	skipc
  3117  05D0  03F6               	decf	___lwdiv@dividend+1,f
  3118  05D1  02F6               	subwf	___lwdiv@dividend+1,f
  3119  05D2                     l2498:
  3120  05D2  1421               	bsf	___lwdiv@quotient,0
  3121  05D3                     l2500:
  3122  05D3  3001               	movlw	1
  3123  05D4                     u2395:
  3124  05D4  1003               	clrc
  3125  05D5  0CF4               	rrf	___lwdiv@divisor+1,f
  3126  05D6  0CF3               	rrf	___lwdiv@divisor,f
  3127  05D7  3EFF               	addlw	-1
  3128  05D8  1D03               	skipz
  3129  05D9  2DD4               	goto	u2395
  3130  05DA                     l2502:
  3131  05DA  3001               	movlw	1
  3132  05DB  02A0               	subwf	___lwdiv@counter,f
  3133  05DC  1D03               	btfss	3,2
  3134  05DD  2DDF               	goto	u2401
  3135  05DE  2DE0               	goto	u2400
  3136  05DF                     u2401:
  3137  05DF  2DBB               	goto	l2494
  3138  05E0                     u2400:
  3139  05E0                     l2504:
  3140  05E0  0822               	movf	___lwdiv@quotient+1,w
  3141  05E1  00F4               	movwf	?___lwdiv+1
  3142  05E2  0821               	movf	___lwdiv@quotient,w
  3143  05E3  00F3               	movwf	?___lwdiv
  3144  05E4                     l660:
  3145  05E4  0008               	return
  3146  05E5                     __end_of___lwdiv:
  3147                           
  3148                           	psect	text7
  3149  0D52                     __ptext7:	
  3150 ;; *************** function _read_matrix_keypad *****************
  3151 ;; Defined at:
  3152 ;;		line 114 in file "matrix_keypad.c"
  3153 ;; Parameters:    Size  Location     Type
  3154 ;;  mode            1    wreg     unsigned char 
  3155 ;; Auto vars:     Size  Location     Type
  3156 ;;  mode            1    6[COMMON] unsigned char 
  3157 ;;  key             1    7[COMMON] unsigned char 
  3158 ;; Return value:  Size  Location     Type
  3159 ;;                  1    wreg      unsigned char 
  3160 ;; Registers used:
  3161 ;;		wreg, status,2, status,0, btemp+1, pclath, cstack
  3162 ;; Tracked objects:
  3163 ;;		On entry : 0/0
  3164 ;;		On exit  : 0/0
  3165 ;;		Unchanged: 0/0
  3166 ;; Data sizes:     COMMON   BANK0   BANK1   BANK3   BANK2
  3167 ;;      Params:         0       0       0       0       0
  3168 ;;      Locals:         2       0       0       0       0
  3169 ;;      Temps:          1       0       0       0       0
  3170 ;;      Totals:         3       0       0       0       0
  3171 ;;Total ram usage:        3 bytes
  3172 ;; Hardware stack levels used: 1
  3173 ;; Hardware stack levels required when called: 2
  3174 ;; This function calls:
  3175 ;;		_scan_keypad
  3176 ;; This function is called by:
  3177 ;;		_main
  3178 ;; This function uses a non-reentrant model
  3179 ;;
  3180                           
  3181  0D52                     _read_matrix_keypad:	
  3182                           ;psect for function _read_matrix_keypad
  3183                           
  3184                           
  3185                           ;incstack = 0
  3186                           ; Regs used in _read_matrix_keypad: [wreg+status,2+status,0+btemp+1+pclath+cstack]
  3187                           ;read_matrix_keypad@mode stored from wreg
  3188  0D52  00F6               	movwf	read_matrix_keypad@mode
  3189  0D53                     l1958:
  3190                           
  3191                           ;matrix_keypad.c: 114: unsigned char read_matrix_keypad(unsigned char mode);matrix_keypa
      +                          d.c: 115: {;matrix_keypad.c: 116:     static unsigned char once = 1;;matrix_keypad.c: 11
      +                          7:     unsigned char key;;matrix_keypad.c: 119:     key = scan_keypad();
  3192  0D53  120A  118A  26E5  120A  158A  	fcall	_scan_keypad
  3193  0D58  00F5               	movwf	??_read_matrix_keypad
  3194  0D59  0875               	movf	??_read_matrix_keypad,w
  3195  0D5A  00F7               	movwf	read_matrix_keypad@key
  3196  0D5B                     l1960:
  3197                           
  3198                           ;matrix_keypad.c: 121:     if (mode == 0)
  3199  0D5B  0876               	movf	read_matrix_keypad@mode,w
  3200  0D5C  1D03               	btfss	3,2
  3201  0D5D  2D5F               	goto	u1611
  3202  0D5E  2D60               	goto	u1610
  3203  0D5F                     u1611:
  3204  0D5F  2D62               	goto	l1968
  3205  0D60                     u1610:
  3206  0D60                     l1962:
  3207                           
  3208                           ;matrix_keypad.c: 122:     {;matrix_keypad.c: 123:         return key;
  3209  0D60  0877               	movf	read_matrix_keypad@key,w
  3210  0D61  2D76               	goto	l178
  3211  0D62                     l1968:
  3212                           
  3213                           ;matrix_keypad.c: 126:     {;matrix_keypad.c: 127:         if ((key != 0xFF) && once)
  3214  0D62  0A77               	incf	read_matrix_keypad@key,w
  3215  0D63  1903               	btfsc	3,2
  3216  0D64  2D66               	goto	u1621
  3217  0D65  2D67               	goto	u1620
  3218  0D66                     u1621:
  3219  0D66  2D6E               	goto	l1980
  3220  0D67                     u1620:
  3221  0D67                     l1970:
  3222  0D67  087A               	movf	read_matrix_keypad@once,w
  3223  0D68  1903               	btfsc	3,2
  3224  0D69  2D6B               	goto	u1631
  3225  0D6A  2D6C               	goto	u1630
  3226  0D6B                     u1631:
  3227  0D6B  2D6E               	goto	l1980
  3228  0D6C                     u1630:
  3229  0D6C                     l1972:
  3230                           
  3231                           ;matrix_keypad.c: 128:         {;matrix_keypad.c: 129:             once = 0;
  3232  0D6C  01FA               	clrf	read_matrix_keypad@once
  3233  0D6D  2D60               	goto	l1962
  3234  0D6E                     l1980:
  3235  0D6E  0A77               	incf	read_matrix_keypad@key,w
  3236  0D6F  1D03               	btfss	3,2
  3237  0D70  2D72               	goto	u1641
  3238  0D71  2D73               	goto	u1640
  3239  0D72                     u1641:
  3240  0D72  2D75               	goto	l1984
  3241  0D73                     u1640:
  3242  0D73                     l1982:
  3243                           
  3244                           ;matrix_keypad.c: 134:         {;matrix_keypad.c: 135:             once = 1;
  3245  0D73  01FA               	clrf	read_matrix_keypad@once
  3246  0D74  0AFA               	incf	read_matrix_keypad@once,f
  3247  0D75                     l1984:
  3248                           
  3249                           ;matrix_keypad.c: 139:     return 0xFF;
  3250  0D75  30FF               	movlw	255
  3251  0D76                     l178:
  3252  0D76  0008               	return
  3253  0D77                     __end_of_read_matrix_keypad:
  3254                           
  3255                           	psect	text8
  3256  06E5                     __ptext8:	
  3257 ;; *************** function _scan_keypad *****************
  3258 ;; Defined at:
  3259 ;;		line 24 in file "matrix_keypad.c"
  3260 ;; Parameters:    Size  Location     Type
  3261 ;;		None
  3262 ;; Auto vars:     Size  Location     Type
  3263 ;;  i               2    3[COMMON] int 
  3264 ;; Return value:  Size  Location     Type
  3265 ;;                  1    wreg      unsigned char 
  3266 ;; Registers used:
  3267 ;;		wreg, status,2, status,0, btemp+1
  3268 ;; Tracked objects:
  3269 ;;		On entry : 0/0
  3270 ;;		On exit  : 0/0
  3271 ;;		Unchanged: 0/0
  3272 ;; Data sizes:     COMMON   BANK0   BANK1   BANK3   BANK2
  3273 ;;      Params:         0       0       0       0       0
  3274 ;;      Locals:         2       0       0       0       0
  3275 ;;      Temps:          0       0       0       0       0
  3276 ;;      Totals:         2       0       0       0       0
  3277 ;;Total ram usage:        2 bytes
  3278 ;; Hardware stack levels used: 1
  3279 ;; Hardware stack levels required when called: 1
  3280 ;; This function calls:
  3281 ;;		Nothing
  3282 ;; This function is called by:
  3283 ;;		_read_matrix_keypad
  3284 ;; This function uses a non-reentrant model
  3285 ;;
  3286                           
  3287  06E5                     _scan_keypad:	
  3288                           ;psect for function _scan_keypad
  3289                           
  3290  06E5                     l1702:	
  3291                           ;incstack = 0
  3292                           ; Regs used in _scan_keypad: [wreg+status,2+status,0+btemp+1]
  3293                           
  3294                           
  3295                           ;matrix_keypad.c: 26:     int i;;matrix_keypad.c: 28:     RD3 = 0;
  3296  06E5  1283               	bcf	3,5	;RP0=0, select bank0
  3297  06E6  1303               	bcf	3,6	;RP1=0, select bank0
  3298  06E7  1188               	bcf	8,3	;volatile
  3299                           
  3300                           ;matrix_keypad.c: 29:     RD2 = 1;
  3301  06E8  1508               	bsf	8,2	;volatile
  3302                           
  3303                           ;matrix_keypad.c: 30:     RD1 = 1;
  3304  06E9  1488               	bsf	8,1	;volatile
  3305                           
  3306                           ;matrix_keypad.c: 31:     RD0 = 1;
  3307  06EA  1408               	bsf	8,0	;volatile
  3308  06EB                     l1704:
  3309                           
  3310                           ;matrix_keypad.c: 33:     for (i = 100; i--; );
  3311  06EB  3064               	movlw	100
  3312  06EC  00F3               	movwf	scan_keypad@i
  3313  06ED  3000               	movlw	0
  3314  06EE  00F4               	movwf	scan_keypad@i+1
  3315  06EF                     l1706:
  3316  06EF  30FF               	movlw	255
  3317  06F0  07F3               	addwf	scan_keypad@i,f
  3318  06F1  1803               	skipnc
  3319  06F2  0AF4               	incf	scan_keypad@i+1,f
  3320  06F3  30FF               	movlw	255
  3321  06F4  07F4               	addwf	scan_keypad@i+1,f
  3322  06F5  0A73               	incf	scan_keypad@i,w
  3323  06F6  1D03               	skipz
  3324  06F7  2EFC               	goto	u1091
  3325  06F8  0A74               	incf	scan_keypad@i+1,w
  3326  06F9  1D03               	btfss	3,2
  3327  06FA  2EFC               	goto	u1091
  3328  06FB  2EFD               	goto	u1090
  3329  06FC                     u1091:
  3330  06FC  2EEF               	goto	l1706
  3331  06FD                     u1090:
  3332  06FD                     l145:
  3333                           
  3334                           ;matrix_keypad.c: 35:     if (RB0 == 0)
  3335  06FD  1283               	bcf	3,5	;RP0=0, select bank0
  3336  06FE  1303               	bcf	3,6	;RP1=0, select bank0
  3337  06FF  1806               	btfsc	6,0	;volatile
  3338  0700  2F02               	goto	u1101
  3339  0701  2F03               	goto	u1100
  3340  0702                     u1101:
  3341  0702  2F05               	goto	l146
  3342  0703                     u1100:
  3343  0703                     l1708:
  3344                           
  3345                           ;matrix_keypad.c: 36:     {;matrix_keypad.c: 37:         return 1;
  3346  0703  3001               	movlw	1
  3347  0704  2F9F               	goto	l147
  3348  0705                     l146:	
  3349                           ;matrix_keypad.c: 39:     else if (RB1 == 0)
  3350                           
  3351  0705  1886               	btfsc	6,1	;volatile
  3352  0706  2F08               	goto	u1111
  3353  0707  2F09               	goto	u1110
  3354  0708                     u1111:
  3355  0708  2F0B               	goto	l149
  3356  0709                     u1110:
  3357  0709                     l1714:
  3358                           
  3359                           ;matrix_keypad.c: 40:     {;matrix_keypad.c: 41:         return 2;
  3360  0709  3002               	movlw	2
  3361  070A  2F9F               	goto	l147
  3362  070B                     l149:	
  3363                           ;matrix_keypad.c: 43:     else if (RB2 == 0)
  3364                           
  3365  070B  1906               	btfsc	6,2	;volatile
  3366  070C  2F0E               	goto	u1121
  3367  070D  2F0F               	goto	u1120
  3368  070E                     u1121:
  3369  070E  2F11               	goto	l148
  3370  070F                     u1120:
  3371  070F                     l1720:
  3372                           
  3373                           ;matrix_keypad.c: 44:     {;matrix_keypad.c: 45:         return 3;
  3374  070F  3003               	movlw	3
  3375  0710  2F9F               	goto	l147
  3376  0711                     l148:
  3377                           
  3378                           ;matrix_keypad.c: 48:     RD3 = 1;
  3379  0711  1588               	bsf	8,3	;volatile
  3380                           
  3381                           ;matrix_keypad.c: 49:     RD2 = 0;
  3382  0712  1108               	bcf	8,2	;volatile
  3383                           
  3384                           ;matrix_keypad.c: 50:     RD1 = 1;
  3385  0713  1488               	bsf	8,1	;volatile
  3386                           
  3387                           ;matrix_keypad.c: 51:     RD0 = 1;
  3388  0714  1408               	bsf	8,0	;volatile
  3389  0715                     l1724:
  3390                           
  3391                           ;matrix_keypad.c: 53:    for (i = 100; i > 0; i--)
  3392  0715  3064               	movlw	100
  3393  0716  00F3               	movwf	scan_keypad@i
  3394  0717  3000               	movlw	0
  3395  0718  00F4               	movwf	scan_keypad@i+1
  3396  0719                     l1730:
  3397                           
  3398                           ;matrix_keypad.c: 54:    {;matrix_keypad.c: 56:    }
  3399  0719  30FF               	movlw	255
  3400  071A  07F3               	addwf	scan_keypad@i,f
  3401  071B  1803               	skipnc
  3402  071C  0AF4               	incf	scan_keypad@i+1,f
  3403  071D  30FF               	movlw	255
  3404  071E  07F4               	addwf	scan_keypad@i+1,f
  3405  071F                     l1732:
  3406  071F  0874               	movf	scan_keypad@i+1,w
  3407  0720  3A80               	xorlw	128
  3408  0721  00FF               	movwf	btemp+1
  3409  0722  3080               	movlw	128
  3410  0723  027F               	subwf	btemp+1,w
  3411  0724  1D03               	skipz
  3412  0725  2F28               	goto	u1135
  3413  0726  3001               	movlw	1
  3414  0727  0273               	subwf	scan_keypad@i,w
  3415  0728                     u1135:
  3416  0728  1803               	skipnc
  3417  0729  2F2B               	goto	u1131
  3418  072A  2F2C               	goto	u1130
  3419  072B                     u1131:
  3420  072B  2F19               	goto	l1730
  3421  072C                     u1130:
  3422  072C                     l153:
  3423                           
  3424                           ;matrix_keypad.c: 58:     if (RB0 == 0)
  3425  072C  1283               	bcf	3,5	;RP0=0, select bank0
  3426  072D  1303               	bcf	3,6	;RP1=0, select bank0
  3427  072E  1806               	btfsc	6,0	;volatile
  3428  072F  2F31               	goto	u1141
  3429  0730  2F32               	goto	u1140
  3430  0731                     u1141:
  3431  0731  2F34               	goto	l154
  3432  0732                     u1140:
  3433  0732                     l1734:
  3434                           
  3435                           ;matrix_keypad.c: 59:     {;matrix_keypad.c: 60:         return 4;
  3436  0732  3004               	movlw	4
  3437  0733  2F9F               	goto	l147
  3438  0734                     l154:	
  3439                           ;matrix_keypad.c: 62:     else if (RB1 == 0)
  3440                           
  3441  0734  1886               	btfsc	6,1	;volatile
  3442  0735  2F37               	goto	u1151
  3443  0736  2F38               	goto	u1150
  3444  0737                     u1151:
  3445  0737  2F3A               	goto	l156
  3446  0738                     u1150:
  3447  0738                     l1740:
  3448                           
  3449                           ;matrix_keypad.c: 63:     {;matrix_keypad.c: 64:         return 5;
  3450  0738  3005               	movlw	5
  3451  0739  2F9F               	goto	l147
  3452  073A                     l156:	
  3453                           ;matrix_keypad.c: 66:     else if (RB2 == 0)
  3454                           
  3455  073A  1906               	btfsc	6,2	;volatile
  3456  073B  2F3D               	goto	u1161
  3457  073C  2F3E               	goto	u1160
  3458  073D                     u1161:
  3459  073D  2F40               	goto	l155
  3460  073E                     u1160:
  3461  073E                     l1746:
  3462                           
  3463                           ;matrix_keypad.c: 67:     {;matrix_keypad.c: 68:         return 6;
  3464  073E  3006               	movlw	6
  3465  073F  2F9F               	goto	l147
  3466  0740                     l155:
  3467                           
  3468                           ;matrix_keypad.c: 71:     RD3 = 1;
  3469  0740  1588               	bsf	8,3	;volatile
  3470                           
  3471                           ;matrix_keypad.c: 72:     RD2 = 1;
  3472  0741  1508               	bsf	8,2	;volatile
  3473                           
  3474                           ;matrix_keypad.c: 73:     RD1 = 0;
  3475  0742  1088               	bcf	8,1	;volatile
  3476                           
  3477                           ;matrix_keypad.c: 74:     RD0 = 1;
  3478  0743  1408               	bsf	8,0	;volatile
  3479  0744                     l1750:
  3480                           
  3481                           ;matrix_keypad.c: 76:     for (i = 100; i > 0; i--);
  3482  0744  3064               	movlw	100
  3483  0745  00F3               	movwf	scan_keypad@i
  3484  0746  3000               	movlw	0
  3485  0747  00F4               	movwf	scan_keypad@i+1
  3486  0748                     l1756:
  3487  0748  30FF               	movlw	255
  3488  0749  07F3               	addwf	scan_keypad@i,f
  3489  074A  1803               	skipnc
  3490  074B  0AF4               	incf	scan_keypad@i+1,f
  3491  074C  30FF               	movlw	255
  3492  074D  07F4               	addwf	scan_keypad@i+1,f
  3493  074E                     l1758:
  3494  074E  0874               	movf	scan_keypad@i+1,w
  3495  074F  3A80               	xorlw	128
  3496  0750  00FF               	movwf	btemp+1
  3497  0751  3080               	movlw	128
  3498  0752  027F               	subwf	btemp+1,w
  3499  0753  1D03               	skipz
  3500  0754  2F57               	goto	u1175
  3501  0755  3001               	movlw	1
  3502  0756  0273               	subwf	scan_keypad@i,w
  3503  0757                     u1175:
  3504  0757  1803               	skipnc
  3505  0758  2F5A               	goto	u1171
  3506  0759  2F5B               	goto	u1170
  3507  075A                     u1171:
  3508  075A  2F48               	goto	l1756
  3509  075B                     u1170:
  3510  075B                     l160:
  3511                           
  3512                           ;matrix_keypad.c: 78:     if (RB0 == 0)
  3513  075B  1283               	bcf	3,5	;RP0=0, select bank0
  3514  075C  1303               	bcf	3,6	;RP1=0, select bank0
  3515  075D  1806               	btfsc	6,0	;volatile
  3516  075E  2F60               	goto	u1181
  3517  075F  2F61               	goto	u1180
  3518  0760                     u1181:
  3519  0760  2F63               	goto	l161
  3520  0761                     u1180:
  3521  0761                     l1760:
  3522                           
  3523                           ;matrix_keypad.c: 79:     {;matrix_keypad.c: 80:         return 7;
  3524  0761  3007               	movlw	7
  3525  0762  2F9F               	goto	l147
  3526  0763                     l161:	
  3527                           ;matrix_keypad.c: 82:     else if (RB1 == 0)
  3528                           
  3529  0763  1886               	btfsc	6,1	;volatile
  3530  0764  2F66               	goto	u1191
  3531  0765  2F67               	goto	u1190
  3532  0766                     u1191:
  3533  0766  2F69               	goto	l163
  3534  0767                     u1190:
  3535  0767                     l1766:
  3536                           
  3537                           ;matrix_keypad.c: 83:     {;matrix_keypad.c: 84:         return 8;
  3538  0767  3008               	movlw	8
  3539  0768  2F9F               	goto	l147
  3540  0769                     l163:	
  3541                           ;matrix_keypad.c: 86:     else if (RB2 == 0)
  3542                           
  3543  0769  1906               	btfsc	6,2	;volatile
  3544  076A  2F6C               	goto	u1201
  3545  076B  2F6D               	goto	u1200
  3546  076C                     u1201:
  3547  076C  2F6F               	goto	l162
  3548  076D                     u1200:
  3549  076D                     l1772:
  3550                           
  3551                           ;matrix_keypad.c: 87:     {;matrix_keypad.c: 88:         return 9;
  3552  076D  3009               	movlw	9
  3553  076E  2F9F               	goto	l147
  3554  076F                     l162:
  3555                           
  3556                           ;matrix_keypad.c: 91:     RD3 = 1;
  3557  076F  1588               	bsf	8,3	;volatile
  3558                           
  3559                           ;matrix_keypad.c: 92:     RD2 = 1;
  3560  0770  1508               	bsf	8,2	;volatile
  3561                           
  3562                           ;matrix_keypad.c: 93:     RD1 = 1;
  3563  0771  1488               	bsf	8,1	;volatile
  3564                           
  3565                           ;matrix_keypad.c: 94:     RD0 = 0;
  3566  0772  1008               	bcf	8,0	;volatile
  3567  0773                     l1776:
  3568                           
  3569                           ;matrix_keypad.c: 96:     for (i = 100; i > 0; i--);
  3570  0773  3064               	movlw	100
  3571  0774  00F3               	movwf	scan_keypad@i
  3572  0775  3000               	movlw	0
  3573  0776  00F4               	movwf	scan_keypad@i+1
  3574  0777                     l1782:
  3575  0777  30FF               	movlw	255
  3576  0778  07F3               	addwf	scan_keypad@i,f
  3577  0779  1803               	skipnc
  3578  077A  0AF4               	incf	scan_keypad@i+1,f
  3579  077B  30FF               	movlw	255
  3580  077C  07F4               	addwf	scan_keypad@i+1,f
  3581  077D                     l1784:
  3582  077D  0874               	movf	scan_keypad@i+1,w
  3583  077E  3A80               	xorlw	128
  3584  077F  00FF               	movwf	btemp+1
  3585  0780  3080               	movlw	128
  3586  0781  027F               	subwf	btemp+1,w
  3587  0782  1D03               	skipz
  3588  0783  2F86               	goto	u1215
  3589  0784  3001               	movlw	1
  3590  0785  0273               	subwf	scan_keypad@i,w
  3591  0786                     u1215:
  3592  0786  1803               	skipnc
  3593  0787  2F89               	goto	u1211
  3594  0788  2F8A               	goto	u1210
  3595  0789                     u1211:
  3596  0789  2F77               	goto	l1782
  3597  078A                     u1210:
  3598  078A                     l167:
  3599                           
  3600                           ;matrix_keypad.c: 98:     if (RB0 == 0)
  3601  078A  1283               	bcf	3,5	;RP0=0, select bank0
  3602  078B  1303               	bcf	3,6	;RP1=0, select bank0
  3603  078C  1806               	btfsc	6,0	;volatile
  3604  078D  2F8F               	goto	u1221
  3605  078E  2F90               	goto	u1220
  3606  078F                     u1221:
  3607  078F  2F92               	goto	l168
  3608  0790                     u1220:
  3609  0790                     l1786:
  3610                           
  3611                           ;matrix_keypad.c: 99:     {;matrix_keypad.c: 100:         return '*';
  3612  0790  302A               	movlw	42
  3613  0791  2F9F               	goto	l147
  3614  0792                     l168:	
  3615                           ;matrix_keypad.c: 102:     else if (RB1 == 0)
  3616                           
  3617  0792  1886               	btfsc	6,1	;volatile
  3618  0793  2F95               	goto	u1231
  3619  0794  2F96               	goto	u1230
  3620  0795                     u1231:
  3621  0795  2F98               	goto	l170
  3622  0796                     u1230:
  3623  0796                     l1792:
  3624                           
  3625                           ;matrix_keypad.c: 103:     {;matrix_keypad.c: 104:         return 0;
  3626  0796  3000               	movlw	0
  3627  0797  2F9F               	goto	l147
  3628  0798                     l170:	
  3629                           ;matrix_keypad.c: 106:     else if (RB2 == 0)
  3630                           
  3631  0798  1906               	btfsc	6,2	;volatile
  3632  0799  2F9B               	goto	u1241
  3633  079A  2F9C               	goto	u1240
  3634  079B                     u1241:
  3635  079B  2F9E               	goto	l1802
  3636  079C                     u1240:
  3637  079C                     l1798:
  3638                           
  3639                           ;matrix_keypad.c: 107:     {;matrix_keypad.c: 108:         return '#';
  3640  079C  3023               	movlw	35
  3641  079D  2F9F               	goto	l147
  3642  079E                     l1802:
  3643                           
  3644                           ;matrix_keypad.c: 111:     return 0xFF;
  3645  079E  30FF               	movlw	255
  3646  079F                     l147:
  3647  079F  0008               	return
  3648  07A0                     __end_of_scan_keypad:
  3649                           
  3650                           	psect	text9
  3651  0D3D                     __ptext9:	
  3652 ;; *************** function _init_config *****************
  3653 ;; Defined at:
  3654 ;;		line 16 in file "main.c"
  3655 ;; Parameters:    Size  Location     Type
  3656 ;;		None
  3657 ;; Auto vars:     Size  Location     Type
  3658 ;;		None
  3659 ;; Return value:  Size  Location     Type
  3660 ;;                  1    wreg      void 
  3661 ;; Registers used:
  3662 ;;		wreg, status,2, status,0, pclath, cstack
  3663 ;; Tracked objects:
  3664 ;;		On entry : 0/0
  3665 ;;		On exit  : 0/0
  3666 ;;		Unchanged: 0/0
  3667 ;; Data sizes:     COMMON   BANK0   BANK1   BANK3   BANK2
  3668 ;;      Params:         0       0       0       0       0
  3669 ;;      Locals:         0       0       0       0       0
  3670 ;;      Temps:          0       0       0       0       0
  3671 ;;      Totals:         0       0       0       0       0
  3672 ;;Total ram usage:        0 bytes
  3673 ;; Hardware stack levels used: 1
  3674 ;; Hardware stack levels required when called: 4
  3675 ;; This function calls:
  3676 ;;		_init_clcd
  3677 ;;		_init_matrix_keypad
  3678 ;;		_init_timer2
  3679 ;; This function is called by:
  3680 ;;		_main
  3681 ;; This function uses a non-reentrant model
  3682 ;;
  3683                           
  3684  0D3D                     _init_config:	
  3685                           ;psect for function _init_config
  3686                           
  3687  0D3D                     l2508:	
  3688                           ;incstack = 0
  3689                           ; Regs used in _init_config: [wreg+status,2+status,0+pclath+cstack]
  3690                           
  3691                           
  3692                           ;main.c: 18:     while (1)
  3693  0D3D  120A  158A  24ED  120A  158A  	fcall	_init_clcd
  3694                           
  3695                           ;main.c: 19:     {
  3696  0D42  120A  158A  2506  120A  158A  	fcall	_init_matrix_keypad
  3697                           
  3698                           ;main.c: 20: 
  3699  0D47  120A  158A  24E4  120A  158A  	fcall	_init_timer2
  3700  0D4C                     l2510:
  3701                           
  3702                           ;main.c: 22:         if(screen_flag == 0X20)
  3703  0D4C  1683               	bsf	3,5	;RP0=1, select bank1
  3704  0D4D  1303               	bcf	3,6	;RP1=0, select bank1
  3705  0D4E  1107               	bcf	7,2	;volatile
  3706  0D4F                     l2512:
  3707                           
  3708                           ;main.c: 23:         {
  3709  0D4F  170B               	bsf	11,6	;volatile
  3710  0D50                     l2514:
  3711                           
  3712                           ;main.c: 24:             if(key == 1)
  3713  0D50  178B               	bsf	11,7	;volatile
  3714  0D51                     l80:
  3715  0D51  0008               	return
  3716  0D52                     __end_of_init_config:
  3717                           
  3718                           	psect	text10
  3719  0CE4                     __ptext10:	
  3720 ;; *************** function _init_timer2 *****************
  3721 ;; Defined at:
  3722 ;;		line 4 in file "timers.c"
  3723 ;; Parameters:    Size  Location     Type
  3724 ;;		None
  3725 ;; Auto vars:     Size  Location     Type
  3726 ;;		None
  3727 ;; Return value:  Size  Location     Type
  3728 ;;                  1    wreg      void 
  3729 ;; Registers used:
  3730 ;;		wreg
  3731 ;; Tracked objects:
  3732 ;;		On entry : 0/0
  3733 ;;		On exit  : 0/0
  3734 ;;		Unchanged: 0/0
  3735 ;; Data sizes:     COMMON   BANK0   BANK1   BANK3   BANK2
  3736 ;;      Params:         0       0       0       0       0
  3737 ;;      Locals:         0       0       0       0       0
  3738 ;;      Temps:          0       0       0       0       0
  3739 ;;      Totals:         0       0       0       0       0
  3740 ;;Total ram usage:        0 bytes
  3741 ;; Hardware stack levels used: 1
  3742 ;; Hardware stack levels required when called: 1
  3743 ;; This function calls:
  3744 ;;		Nothing
  3745 ;; This function is called by:
  3746 ;;		_init_config
  3747 ;; This function uses a non-reentrant model
  3748 ;;
  3749                           
  3750  0CE4                     _init_timer2:	
  3751                           ;psect for function _init_timer2
  3752                           
  3753  0CE4                     l1696:	
  3754                           ;incstack = 0
  3755                           ; Regs used in _init_timer2: [wreg]
  3756                           
  3757                           
  3758                           ;timers.c: 10:     PR2 = 250;
  3759  0CE4  30FA               	movlw	250
  3760  0CE5  1683               	bsf	3,5	;RP0=1, select bank1
  3761  0CE6  1303               	bcf	3,6	;RP1=0, select bank1
  3762  0CE7  0092               	movwf	18	;volatile
  3763  0CE8                     l1698:
  3764                           
  3765                           ;timers.c: 13:     TMR2IE = 1;
  3766  0CE8  148C               	bsf	12,1	;volatile
  3767  0CE9                     l1700:
  3768                           
  3769                           ;timers.c: 16:     TMR2ON = 0;
  3770  0CE9  1283               	bcf	3,5	;RP0=0, select bank0
  3771  0CEA  1303               	bcf	3,6	;RP1=0, select bank0
  3772  0CEB  1112               	bcf	18,2	;volatile
  3773  0CEC                     l191:
  3774  0CEC  0008               	return
  3775  0CED                     __end_of_init_timer2:
  3776                           
  3777                           	psect	text11
  3778  0D06                     __ptext11:	
  3779 ;; *************** function _init_matrix_keypad *****************
  3780 ;; Defined at:
  3781 ;;		line 4 in file "matrix_keypad.c"
  3782 ;; Parameters:    Size  Location     Type
  3783 ;;		None
  3784 ;; Auto vars:     Size  Location     Type
  3785 ;;		None
  3786 ;; Return value:  Size  Location     Type
  3787 ;;                  1    wreg      void 
  3788 ;; Registers used:
  3789 ;;		wreg, status,2
  3790 ;; Tracked objects:
  3791 ;;		On entry : 0/0
  3792 ;;		On exit  : 0/0
  3793 ;;		Unchanged: 0/0
  3794 ;; Data sizes:     COMMON   BANK0   BANK1   BANK3   BANK2
  3795 ;;      Params:         0       0       0       0       0
  3796 ;;      Locals:         0       0       0       0       0
  3797 ;;      Temps:          0       0       0       0       0
  3798 ;;      Totals:         0       0       0       0       0
  3799 ;;Total ram usage:        0 bytes
  3800 ;; Hardware stack levels used: 1
  3801 ;; Hardware stack levels required when called: 1
  3802 ;; This function calls:
  3803 ;;		Nothing
  3804 ;; This function is called by:
  3805 ;;		_init_config
  3806 ;; This function uses a non-reentrant model
  3807 ;;
  3808                           
  3809  0D06                     _init_matrix_keypad:	
  3810                           ;psect for function _init_matrix_keypad
  3811                           
  3812  0D06                     l1684:	
  3813                           ;incstack = 0
  3814                           ; Regs used in _init_matrix_keypad: [wreg+status,2]
  3815                           
  3816                           
  3817                           ;matrix_keypad.c: 8:     TRISB = TRISB | 0x07;
  3818  0D06  1683               	bsf	3,5	;RP0=1, select bank1
  3819  0D07  1303               	bcf	3,6	;RP1=0, select bank1
  3820  0D08  0806               	movf	6,w	;volatile
  3821  0D09  3807               	iorlw	7
  3822  0D0A  0086               	movwf	6	;volatile
  3823                           
  3824                           ;matrix_keypad.c: 12:     TRISD = TRISD & 0xF0;
  3825  0D0B  0808               	movf	8,w	;volatile
  3826  0D0C  39F0               	andlw	240
  3827  0D0D  0088               	movwf	8	;volatile
  3828  0D0E                     l1686:
  3829                           
  3830                           ;matrix_keypad.c: 15:     nRBPU = 0;
  3831  0D0E  1381               	bcf	1,7	;volatile
  3832  0D0F                     l1688:
  3833                           
  3834                           ;matrix_keypad.c: 18:     RD3 = 1;
  3835  0D0F  1283               	bcf	3,5	;RP0=0, select bank0
  3836  0D10  1303               	bcf	3,6	;RP1=0, select bank0
  3837  0D11  1588               	bsf	8,3	;volatile
  3838  0D12                     l1690:
  3839                           
  3840                           ;matrix_keypad.c: 19:     RD2 = 1;
  3841  0D12  1508               	bsf	8,2	;volatile
  3842  0D13                     l1692:
  3843                           
  3844                           ;matrix_keypad.c: 20:     RD1 = 1;
  3845  0D13  1488               	bsf	8,1	;volatile
  3846  0D14                     l1694:
  3847                           
  3848                           ;matrix_keypad.c: 21:     RD0 = 1;
  3849  0D14  1408               	bsf	8,0	;volatile
  3850  0D15                     l140:
  3851  0D15  0008               	return
  3852  0D16                     __end_of_init_matrix_keypad:
  3853                           
  3854                           	psect	text12
  3855  0CED                     __ptext12:	
  3856 ;; *************** function _init_clcd *****************
  3857 ;; Defined at:
  3858 ;;		line 44 in file "clcd.c"
  3859 ;; Parameters:    Size  Location     Type
  3860 ;;		None
  3861 ;; Auto vars:     Size  Location     Type
  3862 ;;		None
  3863 ;; Return value:  Size  Location     Type
  3864 ;;                  1    wreg      void 
  3865 ;; Registers used:
  3866 ;;		wreg, status,2, status,0, pclath, cstack
  3867 ;; Tracked objects:
  3868 ;;		On entry : 0/0
  3869 ;;		On exit  : 0/0
  3870 ;;		Unchanged: 0/0
  3871 ;; Data sizes:     COMMON   BANK0   BANK1   BANK3   BANK2
  3872 ;;      Params:         0       0       0       0       0
  3873 ;;      Locals:         0       0       0       0       0
  3874 ;;      Temps:          0       0       0       0       0
  3875 ;;      Totals:         0       0       0       0       0
  3876 ;;Total ram usage:        0 bytes
  3877 ;; Hardware stack levels used: 1
  3878 ;; Hardware stack levels required when called: 3
  3879 ;; This function calls:
  3880 ;;		_init_display_controller
  3881 ;; This function is called by:
  3882 ;;		_init_config
  3883 ;; This function uses a non-reentrant model
  3884 ;;
  3885                           
  3886  0CED                     _init_clcd:	
  3887                           ;psect for function _init_clcd
  3888                           
  3889  0CED                     l2394:	
  3890                           ;incstack = 0
  3891                           ; Regs used in _init_clcd: [wreg+status,2+status,0+pclath+cstack]
  3892                           
  3893                           
  3894                           ;clcd.c: 47:     TRISD = 0x00;
  3895  0CED  1683               	bsf	3,5	;RP0=1, select bank1
  3896  0CEE  1303               	bcf	3,6	;RP1=0, select bank1
  3897  0CEF  0188               	clrf	8	;volatile
  3898  0CF0                     l2396:
  3899                           
  3900                           ;clcd.c: 50:     TRISE2 = 0;
  3901  0CF0  1109               	bcf	9,2	;volatile
  3902  0CF1                     l2398:
  3903                           
  3904                           ;clcd.c: 51:     TRISE1 = 0;
  3905  0CF1  1089               	bcf	9,1	;volatile
  3906  0CF2                     l2400:
  3907                           
  3908                           ;clcd.c: 53:     init_display_controller();
  3909  0CF2  120A  158A  2719  120A  158A  	fcall	_init_display_controller
  3910  0CF7                     l23:
  3911  0CF7  0008               	return
  3912  0CF8                     __end_of_init_clcd:
  3913                           
  3914                           	psect	text13
  3915  0F19                     __ptext13:	
  3916 ;; *************** function _init_display_controller *****************
  3917 ;; Defined at:
  3918 ;;		line 21 in file "clcd.c"
  3919 ;; Parameters:    Size  Location     Type
  3920 ;;		None
  3921 ;; Auto vars:     Size  Location     Type
  3922 ;;		None
  3923 ;; Return value:  Size  Location     Type
  3924 ;;                  1    wreg      void 
  3925 ;; Registers used:
  3926 ;;		wreg, status,2, status,0, pclath, cstack
  3927 ;; Tracked objects:
  3928 ;;		On entry : 0/0
  3929 ;;		On exit  : 0/0
  3930 ;;		Unchanged: 0/0
  3931 ;; Data sizes:     COMMON   BANK0   BANK1   BANK3   BANK2
  3932 ;;      Params:         0       0       0       0       0
  3933 ;;      Locals:         0       0       0       0       0
  3934 ;;      Temps:          0       2       0       0       0
  3935 ;;      Totals:         0       2       0       0       0
  3936 ;;Total ram usage:        2 bytes
  3937 ;; Hardware stack levels used: 1
  3938 ;; Hardware stack levels required when called: 2
  3939 ;; This function calls:
  3940 ;;		_clcd_write
  3941 ;; This function is called by:
  3942 ;;		_init_clcd
  3943 ;; This function uses a non-reentrant model
  3944 ;;
  3945                           
  3946  0F19                     _init_display_controller:	
  3947                           ;psect for function _init_display_controller
  3948                           
  3949  0F19                     l2370:	
  3950                           ;incstack = 0
  3951                           ; Regs used in _init_display_controller: [wreg+status,2+status,0+pclath+cstack]
  3952                           
  3953                           
  3954                           ;clcd.c: 24:     _delay((unsigned long)((30)*(20000000/4000.0)));
  3955  0F19  30C3               	movlw	195
  3956  0F1A  1283               	bcf	3,5	;RP0=0, select bank0
  3957  0F1B  1303               	bcf	3,6	;RP1=0, select bank0
  3958  0F1C  00A1               	movwf	??_init_display_controller+1
  3959  0F1D  30CC               	movlw	204
  3960  0F1E  00A0               	movwf	??_init_display_controller
  3961  0F1F                     u2867:
  3962  0F1F  0BA0               	decfsz	??_init_display_controller,f
  3963  0F20  2F1F               	goto	u2867
  3964  0F21  0BA1               	decfsz	??_init_display_controller+1,f
  3965  0F22  2F1F               	goto	u2867
  3966  0F23  0000               	nop
  3967  0F24                     l2372:
  3968                           
  3969                           ;clcd.c: 27:     clcd_write(0x33, 0);
  3970  0F24  01F3               	clrf	clcd_write@mode
  3971  0F25  3033               	movlw	51
  3972  0F26  120A  158A  2601  120A  158A  	fcall	_clcd_write
  3973  0F2B                     l2374:
  3974                           
  3975                           ;clcd.c: 28:     _delay((unsigned long)((4100)*(20000000/4000000.0)));
  3976  0F2B  301B               	movlw	27
  3977  0F2C  1283               	bcf	3,5	;RP0=0, select bank0
  3978  0F2D  1303               	bcf	3,6	;RP1=0, select bank0
  3979  0F2E  00A1               	movwf	??_init_display_controller+1
  3980  0F2F  309D               	movlw	157
  3981  0F30  00A0               	movwf	??_init_display_controller
  3982  0F31                     u2877:
  3983  0F31  0BA0               	decfsz	??_init_display_controller,f
  3984  0F32  2F31               	goto	u2877
  3985  0F33  0BA1               	decfsz	??_init_display_controller+1,f
  3986  0F34  2F31               	goto	u2877
  3987  0F35  2F36               	nop2
  3988                           
  3989                           ;clcd.c: 29:     clcd_write(0x33, 0);
  3990  0F36  01F3               	clrf	clcd_write@mode
  3991  0F37  3033               	movlw	51
  3992  0F38  120A  158A  2601  120A  158A  	fcall	_clcd_write
  3993  0F3D                     l2376:
  3994                           
  3995                           ;clcd.c: 30:     _delay((unsigned long)((100)*(20000000/4000000.0)));
  3996  0F3D  30A5               	movlw	165
  3997  0F3E  1283               	bcf	3,5	;RP0=0, select bank0
  3998  0F3F  1303               	bcf	3,6	;RP1=0, select bank0
  3999  0F40  00A0               	movwf	??_init_display_controller
  4000  0F41                     u2887:
  4001  0F41  0BA0               	decfsz	??_init_display_controller,f
  4002  0F42  2F41               	goto	u2887
  4003  0F43  2F44               	nop2
  4004  0F44                     l2378:
  4005                           
  4006                           ;clcd.c: 31:     clcd_write(0x33, 0);
  4007  0F44  01F3               	clrf	clcd_write@mode
  4008  0F45  3033               	movlw	51
  4009  0F46  120A  158A  2601  120A  158A  	fcall	_clcd_write
  4010  0F4B                     l2380:
  4011                           
  4012                           ;clcd.c: 32:     _delay((unsigned long)((1)*(20000000/4000000.0)));
  4013  0F4B  2F4C               	nop2	;2 cycle nop
  4014  0F4C  2F4D               	nop2	;2 cycle nop
  4015  0F4D  0000               	nop
  4016  0F4E                     l2382:
  4017                           
  4018                           ;clcd.c: 34:     clcd_write(0x02, 0);
  4019  0F4E  01F3               	clrf	clcd_write@mode
  4020  0F4F  3002               	movlw	2
  4021  0F50  120A  158A  2601  120A  158A  	fcall	_clcd_write
  4022  0F55                     l2384:
  4023                           
  4024                           ;clcd.c: 35:     _delay((unsigned long)((100)*(20000000/4000000.0)));
  4025  0F55  30A5               	movlw	165
  4026  0F56  1283               	bcf	3,5	;RP0=0, select bank0
  4027  0F57  1303               	bcf	3,6	;RP1=0, select bank0
  4028  0F58  00A0               	movwf	??_init_display_controller
  4029  0F59                     u2897:
  4030  0F59  0BA0               	decfsz	??_init_display_controller,f
  4031  0F5A  2F59               	goto	u2897
  4032  0F5B  2F5C               	nop2
  4033                           
  4034                           ;clcd.c: 36:     clcd_write(0x28, 0);
  4035  0F5C  01F3               	clrf	clcd_write@mode
  4036  0F5D  3028               	movlw	40
  4037  0F5E  120A  158A  2601  120A  158A  	fcall	_clcd_write
  4038  0F63                     l2386:
  4039                           
  4040                           ;clcd.c: 37:     _delay((unsigned long)((100)*(20000000/4000000.0)));
  4041  0F63  30A5               	movlw	165
  4042  0F64  1283               	bcf	3,5	;RP0=0, select bank0
  4043  0F65  1303               	bcf	3,6	;RP1=0, select bank0
  4044  0F66  00A0               	movwf	??_init_display_controller
  4045  0F67                     u2907:
  4046  0F67  0BA0               	decfsz	??_init_display_controller,f
  4047  0F68  2F67               	goto	u2907
  4048  0F69  2F6A               	nop2
  4049  0F6A                     l2388:
  4050                           
  4051                           ;clcd.c: 38:     clcd_write(0x01, 0);
  4052  0F6A  01F3               	clrf	clcd_write@mode
  4053  0F6B  3001               	movlw	1
  4054  0F6C  120A  158A  2601  120A  158A  	fcall	_clcd_write
  4055                           
  4056                           ;clcd.c: 39:     _delay((unsigned long)((500)*(20000000/4000000.0)));
  4057  0F71  3004               	movlw	4
  4058  0F72  1283               	bcf	3,5	;RP0=0, select bank0
  4059  0F73  1303               	bcf	3,6	;RP1=0, select bank0
  4060  0F74  00A1               	movwf	??_init_display_controller+1
  4061  0F75  303D               	movlw	61
  4062  0F76  00A0               	movwf	??_init_display_controller
  4063  0F77                     u2917:
  4064  0F77  0BA0               	decfsz	??_init_display_controller,f
  4065  0F78  2F77               	goto	u2917
  4066  0F79  0BA1               	decfsz	??_init_display_controller+1,f
  4067  0F7A  2F77               	goto	u2917
  4068  0F7B                     l2390:
  4069                           
  4070                           ;clcd.c: 40:     clcd_write(0x0C, 0);
  4071  0F7B  01F3               	clrf	clcd_write@mode
  4072  0F7C  300C               	movlw	12
  4073  0F7D  120A  158A  2601  120A  158A  	fcall	_clcd_write
  4074  0F82                     l2392:
  4075                           
  4076                           ;clcd.c: 41:     _delay((unsigned long)((100)*(20000000/4000000.0)));
  4077  0F82  30A5               	movlw	165
  4078  0F83  1283               	bcf	3,5	;RP0=0, select bank0
  4079  0F84  1303               	bcf	3,6	;RP1=0, select bank0
  4080  0F85  00A0               	movwf	??_init_display_controller
  4081  0F86                     u2927:
  4082  0F86  0BA0               	decfsz	??_init_display_controller,f
  4083  0F87  2F86               	goto	u2927
  4084  0F88  2F89               	nop2
  4085  0F89                     l20:
  4086  0F89  0008               	return
  4087  0F8A                     __end_of_init_display_controller:
  4088                           
  4089                           	psect	text14
  4090  0CF8                     __ptext14:	
  4091 ;; *************** function _heat_food *****************
  4092 ;; Defined at:
  4093 ;;		line 241 in file "micro_oven.c"
  4094 ;; Parameters:    Size  Location     Type
  4095 ;;		None
  4096 ;; Auto vars:     Size  Location     Type
  4097 ;;		None
  4098 ;; Return value:  Size  Location     Type
  4099 ;;                  1    wreg      void 
  4100 ;; Registers used:
  4101 ;;		wreg, status,2
  4102 ;; Tracked objects:
  4103 ;;		On entry : 0/0
  4104 ;;		On exit  : 0/0
  4105 ;;		Unchanged: 0/0
  4106 ;; Data sizes:     COMMON   BANK0   BANK1   BANK3   BANK2
  4107 ;;      Params:         0       0       0       0       0
  4108 ;;      Locals:         0       0       0       0       0
  4109 ;;      Temps:          1       0       0       0       0
  4110 ;;      Totals:         1       0       0       0       0
  4111 ;;Total ram usage:        1 bytes
  4112 ;; Hardware stack levels used: 1
  4113 ;; Hardware stack levels required when called: 1
  4114 ;; This function calls:
  4115 ;;		Nothing
  4116 ;; This function is called by:
  4117 ;;		_main
  4118 ;; This function uses a non-reentrant model
  4119 ;;
  4120                           
  4121  0CF8                     _heat_food:	
  4122                           ;psect for function _heat_food
  4123                           
  4124  0CF8                     l2192:	
  4125                           ;incstack = 0
  4126                           ; Regs used in _heat_food: [wreg+status,2]
  4127                           
  4128                           
  4129                           ;micro_oven.c: 243:      sec = 30;
  4130  0CF8  301E               	movlw	30
  4131  0CF9  00F3               	movwf	??_heat_food
  4132  0CFA  0873               	movf	??_heat_food,w
  4133  0CFB  1283               	bcf	3,5	;RP0=0, select bank0
  4134  0CFC  1303               	bcf	3,6	;RP1=0, select bank0
  4135  0CFD  00C2               	movwf	_sec
  4136  0CFE                     l2194:
  4137                           
  4138                           ;micro_oven.c: 244:      min = 0;
  4139  0CFE  01C1               	clrf	_min
  4140  0CFF                     l2196:
  4141                           
  4142                           ;micro_oven.c: 245:      TMR2ON = 1;
  4143  0CFF  1512               	bsf	18,2	;volatile
  4144  0D00                     l2198:
  4145                           
  4146                           ;micro_oven.c: 246:      RC2 = 1;
  4147  0D00  1507               	bsf	7,2	;volatile
  4148  0D01                     l2200:
  4149                           
  4150                           ;micro_oven.c: 247:      screen_flag = 0x70;
  4151  0D01  3070               	movlw	112
  4152  0D02  00F3               	movwf	??_heat_food
  4153  0D03  0873               	movf	??_heat_food,w
  4154  0D04  00C3               	movwf	_screen_flag
  4155  0D05                     l281:
  4156  0D05  0008               	return
  4157  0D06                     __end_of_heat_food:
  4158                           
  4159                           	psect	text15
  4160  04A6                     __ptext15:	
  4161 ;; *************** function _display_time *****************
  4162 ;; Defined at:
  4163 ;;		line 212 in file "micro_oven.c"
  4164 ;; Parameters:    Size  Location     Type
  4165 ;;		None
  4166 ;; Auto vars:     Size  Location     Type
  4167 ;;		None
  4168 ;; Return value:  Size  Location     Type
  4169 ;;                  1    wreg      void 
  4170 ;; Registers used:
  4171 ;;		wreg, fsr0l, fsr0h, status,2, status,0, pclath, cstack
  4172 ;; Tracked objects:
  4173 ;;		On entry : 0/0
  4174 ;;		On exit  : 0/0
  4175 ;;		Unchanged: 0/0
  4176 ;; Data sizes:     COMMON   BANK0   BANK1   BANK3   BANK2
  4177 ;;      Params:         0       0       0       0       0
  4178 ;;      Locals:         0       0       0       0       0
  4179 ;;      Temps:          0       3       0       0       0
  4180 ;;      Totals:         0       3       0       0       0
  4181 ;;Total ram usage:        3 bytes
  4182 ;; Hardware stack levels used: 1
  4183 ;; Hardware stack levels required when called: 3
  4184 ;; This function calls:
  4185 ;;		___awdiv
  4186 ;;		___awmod
  4187 ;;		_clcd_print
  4188 ;;		_clcd_putch
  4189 ;;		_clear_screen
  4190 ;; This function is called by:
  4191 ;;		_main
  4192 ;; This function uses a non-reentrant model
  4193 ;;
  4194                           
  4195  04A6                     _display_time:	
  4196                           ;psect for function _display_time
  4197                           
  4198  04A6                     l2620:	
  4199                           ;incstack = 0
  4200                           ; Regs used in _display_time: [wreg-fsr0h+status,2+status,0+pclath+cstack]
  4201                           
  4202                           
  4203                           ;micro_oven.c: 214:      clcd_print("TIME = ", (0x80 + 1));
  4204  04A6  3081               	movlw	129
  4205  04A7  1283               	bcf	3,5	;RP0=0, select bank0
  4206  04A8  1303               	bcf	3,6	;RP1=0, select bank0
  4207  04A9  00AD               	movwf	??_display_time
  4208  04AA  082D               	movf	??_display_time,w
  4209  04AB  00F7               	movwf	clcd_print@addr
  4210  04AC  30A5               	movlw	(low ((STR_16-__stringbase)| (0+32768)))& (0+255)
  4211  04AD  120A  158A  25A2  120A  118A  	fcall	_clcd_print
  4212  04B2                     l2622:
  4213                           
  4214                           ;micro_oven.c: 216:     clcd_putch( min / 10 +'0', (0x80 + 9));
  4215  04B2  3089               	movlw	137
  4216  04B3  1283               	bcf	3,5	;RP0=0, select bank0
  4217  04B4  1303               	bcf	3,6	;RP1=0, select bank0
  4218  04B5  00AD               	movwf	??_display_time
  4219  04B6  082D               	movf	??_display_time,w
  4220  04B7  00AB               	movwf	clcd_putch@addr
  4221  04B8  300A               	movlw	10
  4222  04B9  00F3               	movwf	___awdiv@divisor
  4223  04BA  3000               	movlw	0
  4224  04BB  00F4               	movwf	___awdiv@divisor+1
  4225  04BC  0841               	movf	_min,w
  4226  04BD  00AE               	movwf	??_display_time+1
  4227  04BE  01AF               	clrf	??_display_time+2
  4228  04BF  082E               	movf	??_display_time+1,w
  4229  04C0  00F5               	movwf	___awdiv@dividend
  4230  04C1  082F               	movf	??_display_time+2,w
  4231  04C2  00F6               	movwf	___awdiv@dividend+1
  4232  04C3  120A  158A  26B0  120A  118A  	fcall	___awdiv
  4233  04C8  0873               	movf	?___awdiv,w
  4234  04C9  3E30               	addlw	48
  4235  04CA  120A  158A  2528  120A  118A  	fcall	_clcd_putch
  4236  04CF                     l2624:
  4237                           
  4238                           ;micro_oven.c: 217:     clcd_putch( min % 10 +'0', (0x80 + 10));
  4239  04CF  308A               	movlw	138
  4240  04D0  1283               	bcf	3,5	;RP0=0, select bank0
  4241  04D1  1303               	bcf	3,6	;RP1=0, select bank0
  4242  04D2  00AD               	movwf	??_display_time
  4243  04D3  082D               	movf	??_display_time,w
  4244  04D4  00AB               	movwf	clcd_putch@addr
  4245  04D5  300A               	movlw	10
  4246  04D6  00A4               	movwf	___awmod@divisor
  4247  04D7  3000               	movlw	0
  4248  04D8  00A5               	movwf	___awmod@divisor+1
  4249  04D9  0841               	movf	_min,w
  4250  04DA  00AE               	movwf	??_display_time+1
  4251  04DB  01AF               	clrf	??_display_time+2
  4252  04DC  082E               	movf	??_display_time+1,w
  4253  04DD  00A6               	movwf	___awmod@dividend
  4254  04DE  082F               	movf	??_display_time+2,w
  4255  04DF  00A7               	movwf	___awmod@dividend+1
  4256  04E0  120A  118A  27A0  120A  118A  	fcall	___awmod
  4257  04E5  1283               	bcf	3,5	;RP0=0, select bank0
  4258  04E6  1303               	bcf	3,6	;RP1=0, select bank0
  4259  04E7  0824               	movf	?___awmod,w
  4260  04E8  3E30               	addlw	48
  4261  04E9  120A  158A  2528  120A  118A  	fcall	_clcd_putch
  4262  04EE                     l2626:
  4263                           
  4264                           ;micro_oven.c: 218:     clcd_putch(':', (0x80 + 11));
  4265  04EE  308B               	movlw	139
  4266  04EF  1283               	bcf	3,5	;RP0=0, select bank0
  4267  04F0  1303               	bcf	3,6	;RP1=0, select bank0
  4268  04F1  00AD               	movwf	??_display_time
  4269  04F2  082D               	movf	??_display_time,w
  4270  04F3  00AB               	movwf	clcd_putch@addr
  4271  04F4  303A               	movlw	58
  4272  04F5  120A  158A  2528  120A  118A  	fcall	_clcd_putch
  4273  04FA                     l2628:
  4274                           
  4275                           ;micro_oven.c: 219:     clcd_putch( sec / 10 +'0', (0x80 + 12));
  4276  04FA  308C               	movlw	140
  4277  04FB  1283               	bcf	3,5	;RP0=0, select bank0
  4278  04FC  1303               	bcf	3,6	;RP1=0, select bank0
  4279  04FD  00AD               	movwf	??_display_time
  4280  04FE  082D               	movf	??_display_time,w
  4281  04FF  00AB               	movwf	clcd_putch@addr
  4282  0500  300A               	movlw	10
  4283  0501  00F3               	movwf	___awdiv@divisor
  4284  0502  3000               	movlw	0
  4285  0503  00F4               	movwf	___awdiv@divisor+1
  4286  0504  0842               	movf	_sec,w
  4287  0505  00AE               	movwf	??_display_time+1
  4288  0506  01AF               	clrf	??_display_time+2
  4289  0507  082E               	movf	??_display_time+1,w
  4290  0508  00F5               	movwf	___awdiv@dividend
  4291  0509  082F               	movf	??_display_time+2,w
  4292  050A  00F6               	movwf	___awdiv@dividend+1
  4293  050B  120A  158A  26B0  120A  118A  	fcall	___awdiv
  4294  0510  0873               	movf	?___awdiv,w
  4295  0511  3E30               	addlw	48
  4296  0512  120A  158A  2528  120A  118A  	fcall	_clcd_putch
  4297  0517                     l2630:
  4298                           
  4299                           ;micro_oven.c: 220:     clcd_putch( sec % 10 +'0', (0x80 + 13));
  4300  0517  308D               	movlw	141
  4301  0518  1283               	bcf	3,5	;RP0=0, select bank0
  4302  0519  1303               	bcf	3,6	;RP1=0, select bank0
  4303  051A  00AD               	movwf	??_display_time
  4304  051B  082D               	movf	??_display_time,w
  4305  051C  00AB               	movwf	clcd_putch@addr
  4306  051D  300A               	movlw	10
  4307  051E  00A4               	movwf	___awmod@divisor
  4308  051F  3000               	movlw	0
  4309  0520  00A5               	movwf	___awmod@divisor+1
  4310  0521  0842               	movf	_sec,w
  4311  0522  00AE               	movwf	??_display_time+1
  4312  0523  01AF               	clrf	??_display_time+2
  4313  0524  082E               	movf	??_display_time+1,w
  4314  0525  00A6               	movwf	___awmod@dividend
  4315  0526  082F               	movf	??_display_time+2,w
  4316  0527  00A7               	movwf	___awmod@dividend+1
  4317  0528  120A  118A  27A0  120A  118A  	fcall	___awmod
  4318  052D  1283               	bcf	3,5	;RP0=0, select bank0
  4319  052E  1303               	bcf	3,6	;RP1=0, select bank0
  4320  052F  0824               	movf	?___awmod,w
  4321  0530  3E30               	addlw	48
  4322  0531  120A  158A  2528  120A  118A  	fcall	_clcd_putch
  4323  0536                     l2632:
  4324                           
  4325                           ;micro_oven.c: 221:     clcd_print("4.START/RESUME", (0xC0 + 2));
  4326  0536  30C2               	movlw	194
  4327  0537  1283               	bcf	3,5	;RP0=0, select bank0
  4328  0538  1303               	bcf	3,6	;RP1=0, select bank0
  4329  0539  00AD               	movwf	??_display_time
  4330  053A  082D               	movf	??_display_time,w
  4331  053B  00F7               	movwf	clcd_print@addr
  4332  053C  3032               	movlw	(low ((STR_17-__stringbase)| (0+32768)))& (0+255)
  4333  053D  120A  158A  25A2  120A  118A  	fcall	_clcd_print
  4334  0542                     l2634:
  4335                           
  4336                           ;micro_oven.c: 222:     clcd_print("5.PAUSE", (0x90 + 2));
  4337  0542  3092               	movlw	146
  4338  0543  1283               	bcf	3,5	;RP0=0, select bank0
  4339  0544  1303               	bcf	3,6	;RP1=0, select bank0
  4340  0545  00AD               	movwf	??_display_time
  4341  0546  082D               	movf	??_display_time,w
  4342  0547  00F7               	movwf	clcd_print@addr
  4343  0548  30AD               	movlw	(low ((STR_18-__stringbase)| (0+32768)))& (0+255)
  4344  0549  120A  158A  25A2  120A  118A  	fcall	_clcd_print
  4345  054E                     l2636:
  4346                           
  4347                           ;micro_oven.c: 223:     clcd_print("6.STOP", (0xD0 + 2));
  4348  054E  30D2               	movlw	210
  4349  054F  1283               	bcf	3,5	;RP0=0, select bank0
  4350  0550  1303               	bcf	3,6	;RP1=0, select bank0
  4351  0551  00AD               	movwf	??_display_time
  4352  0552  082D               	movf	??_display_time,w
  4353  0553  00F7               	movwf	clcd_print@addr
  4354  0554  30CD               	movlw	(low ((STR_19-__stringbase)| (0+32768)))& (0+255)
  4355  0555  120A  158A  25A2  120A  118A  	fcall	_clcd_print
  4356  055A                     l2638:
  4357                           
  4358                           ;micro_oven.c: 225:     if(min == 0&& sec == 0)
  4359  055A  1283               	bcf	3,5	;RP0=0, select bank0
  4360  055B  1303               	bcf	3,6	;RP1=0, select bank0
  4361  055C  0841               	movf	_min,w
  4362  055D  1D03               	btfss	3,2
  4363  055E  2D60               	goto	u2581
  4364  055F  2D61               	goto	u2580
  4365  0560                     u2581:
  4366  0560  2D9E               	goto	l278
  4367  0561                     u2580:
  4368  0561                     l2640:
  4369  0561  0842               	movf	_sec,w
  4370  0562  1D03               	btfss	3,2
  4371  0563  2D65               	goto	u2591
  4372  0564  2D66               	goto	u2590
  4373  0565                     u2591:
  4374  0565  2D9E               	goto	l278
  4375  0566                     u2590:
  4376  0566                     l2642:
  4377                           
  4378                           ;micro_oven.c: 226:     {;micro_oven.c: 227:         clear_screen();
  4379  0566  120A  158A  2516  120A  118A  	fcall	_clear_screen
  4380  056B                     l2644:
  4381                           
  4382                           ;micro_oven.c: 228:         TMR2ON = 0;
  4383  056B  1283               	bcf	3,5	;RP0=0, select bank0
  4384  056C  1303               	bcf	3,6	;RP1=0, select bank0
  4385  056D  1112               	bcf	18,2	;volatile
  4386  056E                     l2646:
  4387                           
  4388                           ;micro_oven.c: 229:         RC2 = 0;
  4389  056E  1107               	bcf	7,2	;volatile
  4390  056F                     l2648:
  4391                           
  4392                           ;micro_oven.c: 230:         clcd_print("TIME UP!!!", (0xC0 + 4));
  4393  056F  30C4               	movlw	196
  4394  0570  00AD               	movwf	??_display_time
  4395  0571  082D               	movf	??_display_time,w
  4396  0572  00F7               	movwf	clcd_print@addr
  4397  0573  3090               	movlw	(low ((STR_20-__stringbase)| (0+32768)))& (0+255)
  4398  0574  120A  158A  25A2  120A  118A  	fcall	_clcd_print
  4399  0579                     l2650:
  4400                           
  4401                           ;micro_oven.c: 231:         clcd_print("Enjoy your meal", (0x90 + 0));
  4402  0579  3090               	movlw	144
  4403  057A  1283               	bcf	3,5	;RP0=0, select bank0
  4404  057B  1303               	bcf	3,6	;RP1=0, select bank0
  4405  057C  00AD               	movwf	??_display_time
  4406  057D  082D               	movf	??_display_time,w
  4407  057E  00F7               	movwf	clcd_print@addr
  4408  057F  3022               	movlw	(low ((STR_21-__stringbase)| (0+32768)))& (0+255)
  4409  0580  120A  158A  25A2  120A  118A  	fcall	_clcd_print
  4410  0585                     l2652:
  4411                           
  4412                           ;micro_oven.c: 234:         _delay((unsigned long)((2000)*(20000000/4000.0)));
  4413  0585  3033               	movlw	51
  4414  0586  1283               	bcf	3,5	;RP0=0, select bank0
  4415  0587  1303               	bcf	3,6	;RP1=0, select bank0
  4416  0588  00AF               	movwf	??_display_time+2
  4417  0589  30BB               	movlw	187
  4418  058A  00AE               	movwf	??_display_time+1
  4419  058B  30DF               	movlw	223
  4420  058C  00AD               	movwf	??_display_time
  4421  058D                     u2937:
  4422  058D  0BAD               	decfsz	??_display_time,f
  4423  058E  2D8D               	goto	u2937
  4424  058F  0BAE               	decfsz	??_display_time+1,f
  4425  0590  2D8D               	goto	u2937
  4426  0591  0BAF               	decfsz	??_display_time+2,f
  4427  0592  2D8D               	goto	u2937
  4428  0593                     l2654:
  4429                           
  4430                           ;micro_oven.c: 235:           clear_screen();
  4431  0593  120A  158A  2516  120A  118A  	fcall	_clear_screen
  4432                           
  4433                           ;micro_oven.c: 236:           screen_flag = 0X20;
  4434  0598  3020               	movlw	32
  4435  0599  1283               	bcf	3,5	;RP0=0, select bank0
  4436  059A  1303               	bcf	3,6	;RP1=0, select bank0
  4437  059B  00AD               	movwf	??_display_time
  4438  059C  082D               	movf	??_display_time,w
  4439  059D  00C3               	movwf	_screen_flag
  4440  059E                     l278:
  4441  059E  0008               	return
  4442  059F                     __end_of_display_time:
  4443                           
  4444                           	psect	text16
  4445  0D16                     __ptext16:	
  4446 ;; *************** function _clear_screen *****************
  4447 ;; Defined at:
  4448 ;;		line 73 in file "clcd.c"
  4449 ;; Parameters:    Size  Location     Type
  4450 ;;		None
  4451 ;; Auto vars:     Size  Location     Type
  4452 ;;		None
  4453 ;; Return value:  Size  Location     Type
  4454 ;;                  1    wreg      void 
  4455 ;; Registers used:
  4456 ;;		wreg, status,2, status,0, pclath, cstack
  4457 ;; Tracked objects:
  4458 ;;		On entry : 0/0
  4459 ;;		On exit  : 0/0
  4460 ;;		Unchanged: 0/0
  4461 ;; Data sizes:     COMMON   BANK0   BANK1   BANK3   BANK2
  4462 ;;      Params:         0       0       0       0       0
  4463 ;;      Locals:         0       0       0       0       0
  4464 ;;      Temps:          0       2       0       0       0
  4465 ;;      Totals:         0       2       0       0       0
  4466 ;;Total ram usage:        2 bytes
  4467 ;; Hardware stack levels used: 1
  4468 ;; Hardware stack levels required when called: 2
  4469 ;; This function calls:
  4470 ;;		_clcd_write
  4471 ;; This function is called by:
  4472 ;;		_main
  4473 ;;		_set_time
  4474 ;;		_set_temp
  4475 ;;		_display_time
  4476 ;; This function uses a non-reentrant model
  4477 ;;
  4478                           
  4479  0D16                     _clear_screen:	
  4480                           ;psect for function _clear_screen
  4481                           
  4482  0D16                     l2412:	
  4483                           ;incstack = 0
  4484                           ; Regs used in _clear_screen: [wreg+status,2+status,0+pclath+cstack]
  4485                           
  4486                           
  4487                           ;clcd.c: 75:     clcd_write(0x01, 0);
  4488  0D16  01F3               	clrf	clcd_write@mode
  4489  0D17  3001               	movlw	1
  4490  0D18  120A  158A  2601  120A  158A  	fcall	_clcd_write
  4491  0D1D                     l2414:
  4492                           
  4493                           ;clcd.c: 76:     _delay((unsigned long)((500)*(20000000/4000000.0)));
  4494  0D1D  3004               	movlw	4
  4495  0D1E  1283               	bcf	3,5	;RP0=0, select bank0
  4496  0D1F  1303               	bcf	3,6	;RP1=0, select bank0
  4497  0D20  00A1               	movwf	??_clear_screen+1
  4498  0D21  303D               	movlw	61
  4499  0D22  00A0               	movwf	??_clear_screen
  4500  0D23                     u2947:
  4501  0D23  0BA0               	decfsz	??_clear_screen,f
  4502  0D24  2D23               	goto	u2947
  4503  0D25  0BA1               	decfsz	??_clear_screen+1,f
  4504  0D26  2D23               	goto	u2947
  4505  0D27                     l35:
  4506  0D27  0008               	return
  4507  0D28                     __end_of_clear_screen:
  4508                           
  4509                           	psect	text17
  4510  07A0                     __ptext17:	
  4511 ;; *************** function ___awmod *****************
  4512 ;; Defined at:
  4513 ;;		line 5 in file "C:\Program Files\Microchip\xc8\v2.36\pic\sources\c90\common\awmod.c"
  4514 ;; Parameters:    Size  Location     Type
  4515 ;;  divisor         2    4[BANK0 ] int 
  4516 ;;  dividend        2    6[BANK0 ] int 
  4517 ;; Auto vars:     Size  Location     Type
  4518 ;;  sign            1   10[BANK0 ] unsigned char 
  4519 ;;  counter         1    9[BANK0 ] unsigned char 
  4520 ;; Return value:  Size  Location     Type
  4521 ;;                  2    4[BANK0 ] int 
  4522 ;; Registers used:
  4523 ;;		wreg, status,2, status,0
  4524 ;; Tracked objects:
  4525 ;;		On entry : 0/0
  4526 ;;		On exit  : 0/0
  4527 ;;		Unchanged: 0/0
  4528 ;; Data sizes:     COMMON   BANK0   BANK1   BANK3   BANK2
  4529 ;;      Params:         0       4       0       0       0
  4530 ;;      Locals:         0       2       0       0       0
  4531 ;;      Temps:          0       1       0       0       0
  4532 ;;      Totals:         0       7       0       0       0
  4533 ;;Total ram usage:        7 bytes
  4534 ;; Hardware stack levels used: 1
  4535 ;; Hardware stack levels required when called: 1
  4536 ;; This function calls:
  4537 ;;		Nothing
  4538 ;; This function is called by:
  4539 ;;		_set_temp
  4540 ;;		_set_time
  4541 ;;		_display_time
  4542 ;; This function uses a non-reentrant model
  4543 ;;
  4544                           
  4545  07A0                     ___awmod:	
  4546                           ;psect for function ___awmod
  4547                           
  4548  07A0                     l2444:	
  4549                           ;incstack = 0
  4550                           ; Regs used in ___awmod: [wreg+status,2+status,0]
  4551                           
  4552  07A0  1283               	bcf	3,5	;RP0=0, select bank0
  4553  07A1  1303               	bcf	3,6	;RP1=0, select bank0
  4554  07A2  01AA               	clrf	___awmod@sign
  4555  07A3                     l2446:
  4556  07A3  1FA7               	btfss	___awmod@dividend+1,7
  4557  07A4  2FA6               	goto	u2251
  4558  07A5  2FA7               	goto	u2250
  4559  07A6                     u2251:
  4560  07A6  2FAE               	goto	l2452
  4561  07A7                     u2250:
  4562  07A7                     l2448:
  4563  07A7  09A6               	comf	___awmod@dividend,f
  4564  07A8  09A7               	comf	___awmod@dividend+1,f
  4565  07A9  0AA6               	incf	___awmod@dividend,f
  4566  07AA  1903               	skipnz
  4567  07AB  0AA7               	incf	___awmod@dividend+1,f
  4568  07AC                     l2450:
  4569  07AC  01AA               	clrf	___awmod@sign
  4570  07AD  0AAA               	incf	___awmod@sign,f
  4571  07AE                     l2452:
  4572  07AE  1FA5               	btfss	___awmod@divisor+1,7
  4573  07AF  2FB1               	goto	u2261
  4574  07B0  2FB2               	goto	u2260
  4575  07B1                     u2261:
  4576  07B1  2FB7               	goto	l2456
  4577  07B2                     u2260:
  4578  07B2                     l2454:
  4579  07B2  09A4               	comf	___awmod@divisor,f
  4580  07B3  09A5               	comf	___awmod@divisor+1,f
  4581  07B4  0AA4               	incf	___awmod@divisor,f
  4582  07B5  1903               	skipnz
  4583  07B6  0AA5               	incf	___awmod@divisor+1,f
  4584  07B7                     l2456:
  4585  07B7  0824               	movf	___awmod@divisor,w
  4586  07B8  0425               	iorwf	___awmod@divisor+1,w
  4587  07B9  1903               	btfsc	3,2
  4588  07BA  2FBC               	goto	u2271
  4589  07BB  2FBD               	goto	u2270
  4590  07BC                     u2271:
  4591  07BC  2FEC               	goto	l2474
  4592  07BD                     u2270:
  4593  07BD                     l2458:
  4594  07BD  01A9               	clrf	___awmod@counter
  4595  07BE  0AA9               	incf	___awmod@counter,f
  4596  07BF  2FCB               	goto	l2464
  4597  07C0                     l2460:
  4598  07C0  3001               	movlw	1
  4599  07C1                     u2285:
  4600  07C1  1003               	clrc
  4601  07C2  0DA4               	rlf	___awmod@divisor,f
  4602  07C3  0DA5               	rlf	___awmod@divisor+1,f
  4603  07C4  3EFF               	addlw	-1
  4604  07C5  1D03               	skipz
  4605  07C6  2FC1               	goto	u2285
  4606  07C7                     l2462:
  4607  07C7  3001               	movlw	1
  4608  07C8  00A8               	movwf	??___awmod
  4609  07C9  0828               	movf	??___awmod,w
  4610  07CA  07A9               	addwf	___awmod@counter,f
  4611  07CB                     l2464:
  4612  07CB  1FA5               	btfss	___awmod@divisor+1,7
  4613  07CC  2FCE               	goto	u2291
  4614  07CD  2FCF               	goto	u2290
  4615  07CE                     u2291:
  4616  07CE  2FC0               	goto	l2460
  4617  07CF                     u2290:
  4618  07CF                     l2466:
  4619  07CF  0825               	movf	___awmod@divisor+1,w
  4620  07D0  0227               	subwf	___awmod@dividend+1,w
  4621  07D1  1D03               	skipz
  4622  07D2  2FD5               	goto	u2305
  4623  07D3  0824               	movf	___awmod@divisor,w
  4624  07D4  0226               	subwf	___awmod@dividend,w
  4625  07D5                     u2305:
  4626  07D5  1C03               	skipc
  4627  07D6  2FD8               	goto	u2301
  4628  07D7  2FD9               	goto	u2300
  4629  07D8                     u2301:
  4630  07D8  2FDF               	goto	l2470
  4631  07D9                     u2300:
  4632  07D9                     l2468:
  4633  07D9  0824               	movf	___awmod@divisor,w
  4634  07DA  02A6               	subwf	___awmod@dividend,f
  4635  07DB  0825               	movf	___awmod@divisor+1,w
  4636  07DC  1C03               	skipc
  4637  07DD  03A7               	decf	___awmod@dividend+1,f
  4638  07DE  02A7               	subwf	___awmod@dividend+1,f
  4639  07DF                     l2470:
  4640  07DF  3001               	movlw	1
  4641  07E0                     u2315:
  4642  07E0  1003               	clrc
  4643  07E1  0CA5               	rrf	___awmod@divisor+1,f
  4644  07E2  0CA4               	rrf	___awmod@divisor,f
  4645  07E3  3EFF               	addlw	-1
  4646  07E4  1D03               	skipz
  4647  07E5  2FE0               	goto	u2315
  4648  07E6                     l2472:
  4649  07E6  3001               	movlw	1
  4650  07E7  02A9               	subwf	___awmod@counter,f
  4651  07E8  1D03               	btfss	3,2
  4652  07E9  2FEB               	goto	u2321
  4653  07EA  2FEC               	goto	u2320
  4654  07EB                     u2321:
  4655  07EB  2FCF               	goto	l2466
  4656  07EC                     u2320:
  4657  07EC                     l2474:
  4658  07EC  082A               	movf	___awmod@sign,w
  4659  07ED  1903               	btfsc	3,2
  4660  07EE  2FF0               	goto	u2331
  4661  07EF  2FF1               	goto	u2330
  4662  07F0                     u2331:
  4663  07F0  2FF6               	goto	l2478
  4664  07F1                     u2330:
  4665  07F1                     l2476:
  4666  07F1  09A6               	comf	___awmod@dividend,f
  4667  07F2  09A7               	comf	___awmod@dividend+1,f
  4668  07F3  0AA6               	incf	___awmod@dividend,f
  4669  07F4  1903               	skipnz
  4670  07F5  0AA7               	incf	___awmod@dividend+1,f
  4671  07F6                     l2478:
  4672  07F6  0827               	movf	___awmod@dividend+1,w
  4673  07F7  00A5               	movwf	?___awmod+1
  4674  07F8  0826               	movf	___awmod@dividend,w
  4675  07F9  00A4               	movwf	?___awmod
  4676  07FA                     l554:
  4677  07FA  0008               	return
  4678  07FB                     __end_of___awmod:
  4679                           
  4680                           	psect	text18
  4681  0EB0                     __ptext18:	
  4682 ;; *************** function ___awdiv *****************
  4683 ;; Defined at:
  4684 ;;		line 5 in file "C:\Program Files\Microchip\xc8\v2.36\pic\sources\c90\common\awdiv.c"
  4685 ;; Parameters:    Size  Location     Type
  4686 ;;  divisor         2    3[COMMON] int 
  4687 ;;  dividend        2    5[COMMON] int 
  4688 ;; Auto vars:     Size  Location     Type
  4689 ;;  quotient        2    2[BANK0 ] int 
  4690 ;;  sign            1    1[BANK0 ] unsigned char 
  4691 ;;  counter         1    0[BANK0 ] unsigned char 
  4692 ;; Return value:  Size  Location     Type
  4693 ;;                  2    3[COMMON] int 
  4694 ;; Registers used:
  4695 ;;		wreg, status,2, status,0
  4696 ;; Tracked objects:
  4697 ;;		On entry : 0/0
  4698 ;;		On exit  : 0/0
  4699 ;;		Unchanged: 0/0
  4700 ;; Data sizes:     COMMON   BANK0   BANK1   BANK3   BANK2
  4701 ;;      Params:         4       0       0       0       0
  4702 ;;      Locals:         0       4       0       0       0
  4703 ;;      Temps:          1       0       0       0       0
  4704 ;;      Totals:         5       4       0       0       0
  4705 ;;Total ram usage:        9 bytes
  4706 ;; Hardware stack levels used: 1
  4707 ;; Hardware stack levels required when called: 1
  4708 ;; This function calls:
  4709 ;;		Nothing
  4710 ;; This function is called by:
  4711 ;;		_set_temp
  4712 ;;		_set_time
  4713 ;;		_display_time
  4714 ;; This function uses a non-reentrant model
  4715 ;;
  4716                           
  4717  0EB0                     ___awdiv:	
  4718                           ;psect for function ___awdiv
  4719                           
  4720  0EB0                     l1820:	
  4721                           ;incstack = 0
  4722                           ; Regs used in ___awdiv: [wreg+status,2+status,0]
  4723                           
  4724  0EB0  1283               	bcf	3,5	;RP0=0, select bank0
  4725  0EB1  1303               	bcf	3,6	;RP1=0, select bank0
  4726  0EB2  01A1               	clrf	___awdiv@sign
  4727  0EB3                     l1822:
  4728  0EB3  1FF4               	btfss	___awdiv@divisor+1,7
  4729  0EB4  2EB6               	goto	u1291
  4730  0EB5  2EB7               	goto	u1290
  4731  0EB6                     u1291:
  4732  0EB6  2EBE               	goto	l1828
  4733  0EB7                     u1290:
  4734  0EB7                     l1824:
  4735  0EB7  09F3               	comf	___awdiv@divisor,f
  4736  0EB8  09F4               	comf	___awdiv@divisor+1,f
  4737  0EB9  0AF3               	incf	___awdiv@divisor,f
  4738  0EBA  1903               	skipnz
  4739  0EBB  0AF4               	incf	___awdiv@divisor+1,f
  4740  0EBC                     l1826:
  4741  0EBC  01A1               	clrf	___awdiv@sign
  4742  0EBD  0AA1               	incf	___awdiv@sign,f
  4743  0EBE                     l1828:
  4744  0EBE  1FF6               	btfss	___awdiv@dividend+1,7
  4745  0EBF  2EC1               	goto	u1301
  4746  0EC0  2EC2               	goto	u1300
  4747  0EC1                     u1301:
  4748  0EC1  2ECB               	goto	l1834
  4749  0EC2                     u1300:
  4750  0EC2                     l1830:
  4751  0EC2  09F5               	comf	___awdiv@dividend,f
  4752  0EC3  09F6               	comf	___awdiv@dividend+1,f
  4753  0EC4  0AF5               	incf	___awdiv@dividend,f
  4754  0EC5  1903               	skipnz
  4755  0EC6  0AF6               	incf	___awdiv@dividend+1,f
  4756  0EC7                     l1832:
  4757  0EC7  3001               	movlw	1
  4758  0EC8  00F7               	movwf	??___awdiv
  4759  0EC9  0877               	movf	??___awdiv,w
  4760  0ECA  06A1               	xorwf	___awdiv@sign,f
  4761  0ECB                     l1834:
  4762  0ECB  01A2               	clrf	___awdiv@quotient
  4763  0ECC  01A3               	clrf	___awdiv@quotient+1
  4764  0ECD                     l1836:
  4765  0ECD  0873               	movf	___awdiv@divisor,w
  4766  0ECE  0474               	iorwf	___awdiv@divisor+1,w
  4767  0ECF  1903               	btfsc	3,2
  4768  0ED0  2ED2               	goto	u1311
  4769  0ED1  2ED3               	goto	u1310
  4770  0ED2                     u1311:
  4771  0ED2  2F0A               	goto	l1856
  4772  0ED3                     u1310:
  4773  0ED3                     l1838:
  4774  0ED3  01A0               	clrf	___awdiv@counter
  4775  0ED4  0AA0               	incf	___awdiv@counter,f
  4776  0ED5  2EE1               	goto	l1844
  4777  0ED6                     l1840:
  4778  0ED6  3001               	movlw	1
  4779  0ED7                     u1325:
  4780  0ED7  1003               	clrc
  4781  0ED8  0DF3               	rlf	___awdiv@divisor,f
  4782  0ED9  0DF4               	rlf	___awdiv@divisor+1,f
  4783  0EDA  3EFF               	addlw	-1
  4784  0EDB  1D03               	skipz
  4785  0EDC  2ED7               	goto	u1325
  4786  0EDD                     l1842:
  4787  0EDD  3001               	movlw	1
  4788  0EDE  00F7               	movwf	??___awdiv
  4789  0EDF  0877               	movf	??___awdiv,w
  4790  0EE0  07A0               	addwf	___awdiv@counter,f
  4791  0EE1                     l1844:
  4792  0EE1  1FF4               	btfss	___awdiv@divisor+1,7
  4793  0EE2  2EE4               	goto	u1331
  4794  0EE3  2EE5               	goto	u1330
  4795  0EE4                     u1331:
  4796  0EE4  2ED6               	goto	l1840
  4797  0EE5                     u1330:
  4798  0EE5                     l1846:
  4799  0EE5  3001               	movlw	1
  4800  0EE6                     u1345:
  4801  0EE6  1003               	clrc
  4802  0EE7  0DA2               	rlf	___awdiv@quotient,f
  4803  0EE8  0DA3               	rlf	___awdiv@quotient+1,f
  4804  0EE9  3EFF               	addlw	-1
  4805  0EEA  1D03               	skipz
  4806  0EEB  2EE6               	goto	u1345
  4807  0EEC  0874               	movf	___awdiv@divisor+1,w
  4808  0EED  0276               	subwf	___awdiv@dividend+1,w
  4809  0EEE  1D03               	skipz
  4810  0EEF  2EF2               	goto	u1355
  4811  0EF0  0873               	movf	___awdiv@divisor,w
  4812  0EF1  0275               	subwf	___awdiv@dividend,w
  4813  0EF2                     u1355:
  4814  0EF2  1C03               	skipc
  4815  0EF3  2EF5               	goto	u1351
  4816  0EF4  2EF6               	goto	u1350
  4817  0EF5                     u1351:
  4818  0EF5  2EFD               	goto	l1852
  4819  0EF6                     u1350:
  4820  0EF6                     l1848:
  4821  0EF6  0873               	movf	___awdiv@divisor,w
  4822  0EF7  02F5               	subwf	___awdiv@dividend,f
  4823  0EF8  0874               	movf	___awdiv@divisor+1,w
  4824  0EF9  1C03               	skipc
  4825  0EFA  03F6               	decf	___awdiv@dividend+1,f
  4826  0EFB  02F6               	subwf	___awdiv@dividend+1,f
  4827  0EFC                     l1850:
  4828  0EFC  1422               	bsf	___awdiv@quotient,0
  4829  0EFD                     l1852:
  4830  0EFD  3001               	movlw	1
  4831  0EFE                     u1365:
  4832  0EFE  1003               	clrc
  4833  0EFF  0CF4               	rrf	___awdiv@divisor+1,f
  4834  0F00  0CF3               	rrf	___awdiv@divisor,f
  4835  0F01  3EFF               	addlw	-1
  4836  0F02  1D03               	skipz
  4837  0F03  2EFE               	goto	u1365
  4838  0F04                     l1854:
  4839  0F04  3001               	movlw	1
  4840  0F05  02A0               	subwf	___awdiv@counter,f
  4841  0F06  1D03               	btfss	3,2
  4842  0F07  2F09               	goto	u1371
  4843  0F08  2F0A               	goto	u1370
  4844  0F09                     u1371:
  4845  0F09  2EE5               	goto	l1846
  4846  0F0A                     u1370:
  4847  0F0A                     l1856:
  4848  0F0A  0821               	movf	___awdiv@sign,w
  4849  0F0B  1903               	btfsc	3,2
  4850  0F0C  2F0E               	goto	u1381
  4851  0F0D  2F0F               	goto	u1380
  4852  0F0E                     u1381:
  4853  0F0E  2F14               	goto	l1860
  4854  0F0F                     u1380:
  4855  0F0F                     l1858:
  4856  0F0F  09A2               	comf	___awdiv@quotient,f
  4857  0F10  09A3               	comf	___awdiv@quotient+1,f
  4858  0F11  0AA2               	incf	___awdiv@quotient,f
  4859  0F12  1903               	skipnz
  4860  0F13  0AA3               	incf	___awdiv@quotient+1,f
  4861  0F14                     l1860:
  4862  0F14  0823               	movf	___awdiv@quotient+1,w
  4863  0F15  00F4               	movwf	?___awdiv+1
  4864  0F16  0822               	movf	___awdiv@quotient,w
  4865  0F17  00F3               	movwf	?___awdiv
  4866  0F18                     l541:
  4867  0F18  0008               	return
  4868  0F19                     __end_of___awdiv:
  4869                           
  4870                           	psect	text19
  4871  0F8A                     __ptext19:	
  4872 ;; *************** function _display_power_screen *****************
  4873 ;; Defined at:
  4874 ;;		line 12 in file "micro_oven.c"
  4875 ;; Parameters:    Size  Location     Type
  4876 ;;		None
  4877 ;; Auto vars:     Size  Location     Type
  4878 ;;  i               1   17[BANK0 ] unsigned char 
  4879 ;;  i               1   16[BANK0 ] unsigned char 
  4880 ;; Return value:  Size  Location     Type
  4881 ;;                  1    wreg      void 
  4882 ;; Registers used:
  4883 ;;		wreg, fsr0l, fsr0h, status,2, status,0, pclath, cstack
  4884 ;; Tracked objects:
  4885 ;;		On entry : 0/0
  4886 ;;		On exit  : 0/0
  4887 ;;		Unchanged: 0/0
  4888 ;; Data sizes:     COMMON   BANK0   BANK1   BANK3   BANK2
  4889 ;;      Params:         0       0       0       0       0
  4890 ;;      Locals:         0       2       0       0       0
  4891 ;;      Temps:          0       3       0       0       0
  4892 ;;      Totals:         0       5       0       0       0
  4893 ;;Total ram usage:        5 bytes
  4894 ;; Hardware stack levels used: 1
  4895 ;; Hardware stack levels required when called: 3
  4896 ;; This function calls:
  4897 ;;		_clcd_print
  4898 ;;		_clcd_putch
  4899 ;; This function is called by:
  4900 ;;		_main
  4901 ;; This function uses a non-reentrant model
  4902 ;;
  4903                           
  4904  0F8A                     _display_power_screen:	
  4905                           ;psect for function _display_power_screen
  4906                           
  4907  0F8A                     l2516:	
  4908                           ;incstack = 0
  4909                           ; Regs used in _display_power_screen: [wreg-fsr0h+status,2+status,0+pclath+cstack]
  4910                           
  4911                           
  4912                           ;micro_oven.c: 14:      for(unsigned char i = 0; i < 16 ; i++)
  4913  0F8A  1283               	bcf	3,5	;RP0=0, select bank0
  4914  0F8B  1303               	bcf	3,6	;RP1=0, select bank0
  4915  0F8C  01B0               	clrf	display_power_screen@i
  4916  0F8D                     l2522:
  4917                           
  4918                           ;micro_oven.c: 15:      {;micro_oven.c: 16:          clcd_putch( 0xFF,(0x80 + i));
  4919  0F8D  0830               	movf	display_power_screen@i,w
  4920  0F8E  3E80               	addlw	128
  4921  0F8F  00AD               	movwf	??_display_power_screen
  4922  0F90  082D               	movf	??_display_power_screen,w
  4923  0F91  00AB               	movwf	clcd_putch@addr
  4924  0F92  30FF               	movlw	255
  4925  0F93  120A  158A  2528  120A  158A  	fcall	_clcd_putch
  4926  0F98                     l2524:
  4927                           
  4928                           ;micro_oven.c: 17:          _delay((unsigned long)((100)*(20000000/4000.0)));
  4929  0F98  3003               	movlw	3
  4930  0F99  1283               	bcf	3,5	;RP0=0, select bank0
  4931  0F9A  1303               	bcf	3,6	;RP1=0, select bank0
  4932  0F9B  00AF               	movwf	??_display_power_screen+2
  4933  0F9C  308A               	movlw	138
  4934  0F9D  00AE               	movwf	??_display_power_screen+1
  4935  0F9E  3055               	movlw	85
  4936  0F9F  00AD               	movwf	??_display_power_screen
  4937  0FA0                     u2957:
  4938  0FA0  0BAD               	decfsz	??_display_power_screen,f
  4939  0FA1  2FA0               	goto	u2957
  4940  0FA2  0BAE               	decfsz	??_display_power_screen+1,f
  4941  0FA3  2FA0               	goto	u2957
  4942  0FA4  0BAF               	decfsz	??_display_power_screen+2,f
  4943  0FA5  2FA0               	goto	u2957
  4944  0FA6                     l2526:
  4945                           
  4946                           ;micro_oven.c: 18:      }
  4947  0FA6  3001               	movlw	1
  4948  0FA7  1283               	bcf	3,5	;RP0=0, select bank0
  4949  0FA8  1303               	bcf	3,6	;RP1=0, select bank0
  4950  0FA9  00AD               	movwf	??_display_power_screen
  4951  0FAA  082D               	movf	??_display_power_screen,w
  4952  0FAB  07B0               	addwf	display_power_screen@i,f
  4953  0FAC                     l2528:
  4954  0FAC  3010               	movlw	16
  4955  0FAD  0230               	subwf	display_power_screen@i,w
  4956  0FAE  1C03               	skipc
  4957  0FAF  2FB1               	goto	u2411
  4958  0FB0  2FB2               	goto	u2410
  4959  0FB1                     u2411:
  4960  0FB1  2F8D               	goto	l2522
  4961  0FB2                     u2410:
  4962  0FB2                     l2530:
  4963                           
  4964                           ;micro_oven.c: 19:      clcd_print("Powering ON", (0xC0 + 3));
  4965  0FB2  30C3               	movlw	195
  4966  0FB3  00AD               	movwf	??_display_power_screen
  4967  0FB4  082D               	movf	??_display_power_screen,w
  4968  0FB5  00F7               	movwf	clcd_print@addr
  4969  0FB6  3078               	movlw	(low ((STR_2-__stringbase)| (0+32768)))& (0+255)
  4970  0FB7  120A  158A  25A2  120A  158A  	fcall	_clcd_print
  4971                           
  4972                           ;micro_oven.c: 20:      clcd_print("Microwave oven", (0x90 + 2));
  4973  0FBC  3092               	movlw	146
  4974  0FBD  1283               	bcf	3,5	;RP0=0, select bank0
  4975  0FBE  1303               	bcf	3,6	;RP1=0, select bank0
  4976  0FBF  00AD               	movwf	??_display_power_screen
  4977  0FC0  082D               	movf	??_display_power_screen,w
  4978  0FC1  00F7               	movwf	clcd_print@addr
  4979  0FC2  3041               	movlw	(low ((STR_3-__stringbase)| (0+32768)))& (0+255)
  4980  0FC3  120A  158A  25A2  120A  158A  	fcall	_clcd_print
  4981  0FC8                     l2532:
  4982                           
  4983                           ;micro_oven.c: 22:      for(unsigned char i = 0; i < 16 ; i++)
  4984  0FC8  1283               	bcf	3,5	;RP0=0, select bank0
  4985  0FC9  1303               	bcf	3,6	;RP1=0, select bank0
  4986  0FCA  01B1               	clrf	display_power_screen@i_154
  4987  0FCB                     l2538:
  4988                           
  4989                           ;micro_oven.c: 23:      {;micro_oven.c: 24:          clcd_putch( 0xFF,(0xD0 + i));
  4990  0FCB  0831               	movf	display_power_screen@i_154,w
  4991  0FCC  3ED0               	addlw	208
  4992  0FCD  00AD               	movwf	??_display_power_screen
  4993  0FCE  082D               	movf	??_display_power_screen,w
  4994  0FCF  00AB               	movwf	clcd_putch@addr
  4995  0FD0  30FF               	movlw	255
  4996  0FD1  120A  158A  2528  120A  158A  	fcall	_clcd_putch
  4997  0FD6                     l2540:
  4998                           
  4999                           ;micro_oven.c: 25:          _delay((unsigned long)((100)*(20000000/4000.0)));
  5000  0FD6  3003               	movlw	3
  5001  0FD7  1283               	bcf	3,5	;RP0=0, select bank0
  5002  0FD8  1303               	bcf	3,6	;RP1=0, select bank0
  5003  0FD9  00AF               	movwf	??_display_power_screen+2
  5004  0FDA  308A               	movlw	138
  5005  0FDB  00AE               	movwf	??_display_power_screen+1
  5006  0FDC  3055               	movlw	85
  5007  0FDD  00AD               	movwf	??_display_power_screen
  5008  0FDE                     u2967:
  5009  0FDE  0BAD               	decfsz	??_display_power_screen,f
  5010  0FDF  2FDE               	goto	u2967
  5011  0FE0  0BAE               	decfsz	??_display_power_screen+1,f
  5012  0FE1  2FDE               	goto	u2967
  5013  0FE2  0BAF               	decfsz	??_display_power_screen+2,f
  5014  0FE3  2FDE               	goto	u2967
  5015  0FE4                     l2542:
  5016                           
  5017                           ;micro_oven.c: 26:      }
  5018  0FE4  3001               	movlw	1
  5019  0FE5  1283               	bcf	3,5	;RP0=0, select bank0
  5020  0FE6  1303               	bcf	3,6	;RP1=0, select bank0
  5021  0FE7  00AD               	movwf	??_display_power_screen
  5022  0FE8  082D               	movf	??_display_power_screen,w
  5023  0FE9  07B1               	addwf	display_power_screen@i_154,f
  5024  0FEA                     l2544:
  5025  0FEA  3010               	movlw	16
  5026  0FEB  0231               	subwf	display_power_screen@i_154,w
  5027  0FEC  1C03               	skipc
  5028  0FED  2FEF               	goto	u2421
  5029  0FEE  2FF0               	goto	u2420
  5030  0FEF                     u2421:
  5031  0FEF  2FCB               	goto	l2538
  5032  0FF0                     u2420:
  5033  0FF0                     l2546:
  5034                           
  5035                           ;micro_oven.c: 27:      _delay((unsigned long)((1000)*(20000000/4000.0)));
  5036  0FF0  301A               	movlw	26
  5037  0FF1  1283               	bcf	3,5	;RP0=0, select bank0
  5038  0FF2  1303               	bcf	3,6	;RP1=0, select bank0
  5039  0FF3  00AF               	movwf	??_display_power_screen+2
  5040  0FF4  305E               	movlw	94
  5041  0FF5  00AE               	movwf	??_display_power_screen+1
  5042  0FF6  306D               	movlw	109
  5043  0FF7  00AD               	movwf	??_display_power_screen
  5044  0FF8                     u2977:
  5045  0FF8  0BAD               	decfsz	??_display_power_screen,f
  5046  0FF9  2FF8               	goto	u2977
  5047  0FFA  0BAE               	decfsz	??_display_power_screen+1,f
  5048  0FFB  2FF8               	goto	u2977
  5049  0FFC  0BAF               	decfsz	??_display_power_screen+2,f
  5050  0FFD  2FF8               	goto	u2977
  5051  0FFE  2FFF               	nop2
  5052  0FFF                     l220:
  5053  0FFF  0008               	return
  5054  1000                     __end_of_display_power_screen:
  5055                           
  5056                           	psect	text20
  5057  0D28                     __ptext20:	
  5058 ;; *************** function _clcd_putch *****************
  5059 ;; Defined at:
  5060 ;;		line 56 in file "clcd.c"
  5061 ;; Parameters:    Size  Location     Type
  5062 ;;  data            1    wreg     const unsigned char 
  5063 ;;  addr            1   11[BANK0 ] unsigned char 
  5064 ;; Auto vars:     Size  Location     Type
  5065 ;;  data            1   12[BANK0 ] const unsigned char 
  5066 ;; Return value:  Size  Location     Type
  5067 ;;                  1    wreg      void 
  5068 ;; Registers used:
  5069 ;;		wreg, status,2, status,0, pclath, cstack
  5070 ;; Tracked objects:
  5071 ;;		On entry : 0/0
  5072 ;;		On exit  : 0/0
  5073 ;;		Unchanged: 0/0
  5074 ;; Data sizes:     COMMON   BANK0   BANK1   BANK3   BANK2
  5075 ;;      Params:         0       1       0       0       0
  5076 ;;      Locals:         0       1       0       0       0
  5077 ;;      Temps:          0       0       0       0       0
  5078 ;;      Totals:         0       2       0       0       0
  5079 ;;Total ram usage:        2 bytes
  5080 ;; Hardware stack levels used: 1
  5081 ;; Hardware stack levels required when called: 2
  5082 ;; This function calls:
  5083 ;;		_clcd_write
  5084 ;; This function is called by:
  5085 ;;		_display_power_screen
  5086 ;;		_set_time
  5087 ;;		_set_temp
  5088 ;;		_display_time
  5089 ;; This function uses a non-reentrant model
  5090 ;;
  5091                           
  5092  0D28                     _clcd_putch:	
  5093                           ;psect for function _clcd_putch
  5094                           
  5095                           
  5096                           ;incstack = 0
  5097                           ; Regs used in _clcd_putch: [wreg+status,2+status,0+pclath+cstack]
  5098                           ;clcd_putch@data stored from wreg
  5099  0D28  1283               	bcf	3,5	;RP0=0, select bank0
  5100  0D29  1303               	bcf	3,6	;RP1=0, select bank0
  5101  0D2A  00AC               	movwf	clcd_putch@data
  5102  0D2B                     l2402:
  5103                           
  5104                           ;clcd.c: 56: void clcd_putch(const char data, unsigned char addr);clcd.c: 57: {;clcd.c: 
      +                          58:     clcd_write(addr, 0);
  5105  0D2B  01F3               	clrf	clcd_write@mode
  5106  0D2C  082B               	movf	clcd_putch@addr,w
  5107  0D2D  120A  158A  2601  120A  158A  	fcall	_clcd_write
  5108                           
  5109                           ;clcd.c: 59:     clcd_write(data, 1);
  5110  0D32  01F3               	clrf	clcd_write@mode
  5111  0D33  0AF3               	incf	clcd_write@mode,f
  5112  0D34  1283               	bcf	3,5	;RP0=0, select bank0
  5113  0D35  1303               	bcf	3,6	;RP1=0, select bank0
  5114  0D36  082C               	movf	clcd_putch@data,w
  5115  0D37  120A  158A  2601  120A  158A  	fcall	_clcd_write
  5116  0D3C                     l26:
  5117  0D3C  0008               	return
  5118  0D3D                     __end_of_clcd_putch:
  5119                           
  5120                           	psect	text21
  5121  0DD0                     __ptext21:	
  5122 ;; *************** function _display_modes *****************
  5123 ;; Defined at:
  5124 ;;		line 29 in file "micro_oven.c"
  5125 ;; Parameters:    Size  Location     Type
  5126 ;;		None
  5127 ;; Auto vars:     Size  Location     Type
  5128 ;;		None
  5129 ;; Return value:  Size  Location     Type
  5130 ;;                  1    wreg      void 
  5131 ;; Registers used:
  5132 ;;		wreg, fsr0l, fsr0h, status,2, status,0, pclath, cstack
  5133 ;; Tracked objects:
  5134 ;;		On entry : 0/0
  5135 ;;		On exit  : 0/0
  5136 ;;		Unchanged: 0/0
  5137 ;; Data sizes:     COMMON   BANK0   BANK1   BANK3   BANK2
  5138 ;;      Params:         0       0       0       0       0
  5139 ;;      Locals:         0       0       0       0       0
  5140 ;;      Temps:          0       1       0       0       0
  5141 ;;      Totals:         0       1       0       0       0
  5142 ;;Total ram usage:        1 bytes
  5143 ;; Hardware stack levels used: 1
  5144 ;; Hardware stack levels required when called: 3
  5145 ;; This function calls:
  5146 ;;		_clcd_print
  5147 ;; This function is called by:
  5148 ;;		_main
  5149 ;; This function uses a non-reentrant model
  5150 ;;
  5151                           
  5152  0DD0                     _display_modes:	
  5153                           ;psect for function _display_modes
  5154                           
  5155  0DD0                     l2548:	
  5156                           ;incstack = 0
  5157                           ; Regs used in _display_modes: [wreg-fsr0h+status,2+status,0+pclath+cstack]
  5158                           
  5159                           
  5160                           ;micro_oven.c: 31:      clcd_print("1 Micro", (0x80 + 3));
  5161  0DD0  3083               	movlw	131
  5162  0DD1  1283               	bcf	3,5	;RP0=0, select bank0
  5163  0DD2  1303               	bcf	3,6	;RP1=0, select bank0
  5164  0DD3  00A2               	movwf	??_display_modes
  5165  0DD4  0822               	movf	??_display_modes,w
  5166  0DD5  00F7               	movwf	clcd_print@addr
  5167  0DD6  30BD               	movlw	(low ((STR_4-__stringbase)| (0+32768)))& (0+255)
  5168  0DD7  120A  158A  25A2  120A  158A  	fcall	_clcd_print
  5169                           
  5170                           ;micro_oven.c: 32:      clcd_print("2 Grill", (0xC0 + 3));
  5171  0DDC  30C3               	movlw	195
  5172  0DDD  1283               	bcf	3,5	;RP0=0, select bank0
  5173  0DDE  1303               	bcf	3,6	;RP1=0, select bank0
  5174  0DDF  00A2               	movwf	??_display_modes
  5175  0DE0  0822               	movf	??_display_modes,w
  5176  0DE1  00F7               	movwf	clcd_print@addr
  5177  0DE2  30B5               	movlw	(low ((STR_5-__stringbase)| (0+32768)))& (0+255)
  5178  0DE3  120A  158A  25A2  120A  158A  	fcall	_clcd_print
  5179                           
  5180                           ;micro_oven.c: 33:      clcd_print("3 Convection", (0x90 + 3));
  5181  0DE8  3093               	movlw	147
  5182  0DE9  1283               	bcf	3,5	;RP0=0, select bank0
  5183  0DEA  1303               	bcf	3,6	;RP1=0, select bank0
  5184  0DEB  00A2               	movwf	??_display_modes
  5185  0DEC  0822               	movf	??_display_modes,w
  5186  0DED  00F7               	movwf	clcd_print@addr
  5187  0DEE  305E               	movlw	(low ((STR_6-__stringbase)| (0+32768)))& (0+255)
  5188  0DEF  120A  158A  25A2  120A  158A  	fcall	_clcd_print
  5189                           
  5190                           ;micro_oven.c: 34:      clcd_print("4 Start", (0xD0 + 3));
  5191  0DF4  30D3               	movlw	211
  5192  0DF5  1283               	bcf	3,5	;RP0=0, select bank0
  5193  0DF6  1303               	bcf	3,6	;RP1=0, select bank0
  5194  0DF7  00A2               	movwf	??_display_modes
  5195  0DF8  0822               	movf	??_display_modes,w
  5196  0DF9  00F7               	movwf	clcd_print@addr
  5197  0DFA  30C5               	movlw	(low ((STR_7-__stringbase)| (0+32768)))& (0+255)
  5198  0DFB  120A  158A  25A2  120A  158A  	fcall	_clcd_print
  5199  0E00                     l223:
  5200  0E00  0008               	return
  5201  0E01                     __end_of_display_modes:
  5202                           
  5203                           	psect	text22
  5204  0DA2                     __ptext22:	
  5205 ;; *************** function _clcd_print *****************
  5206 ;; Defined at:
  5207 ;;		line 62 in file "clcd.c"
  5208 ;; Parameters:    Size  Location     Type
  5209 ;;  str             1    wreg     PTR const unsigned char 
  5210 ;;		 -> STR_21(16), STR_20(11), STR_19(7), STR_18(8), 
  5211 ;;		 -> STR_17(15), STR_16(8), STR_15(10), STR_14(12), 
  5212 ;;		 -> STR_13(16), STR_12(6), STR_11(14), STR_10(16), 
  5213 ;;		 -> STR_9(6), STR_8(17), STR_7(8), STR_6(13), 
  5214 ;;		 -> STR_5(8), STR_4(8), STR_3(15), STR_2(12), 
  5215 ;;		 -> STR_1(13), 
  5216 ;;  addr            1    7[COMMON] unsigned char 
  5217 ;; Auto vars:     Size  Location     Type
  5218 ;;  str             1    1[BANK0 ] PTR const unsigned char 
  5219 ;;		 -> STR_21(16), STR_20(11), STR_19(7), STR_18(8), 
  5220 ;;		 -> STR_17(15), STR_16(8), STR_15(10), STR_14(12), 
  5221 ;;		 -> STR_13(16), STR_12(6), STR_11(14), STR_10(16), 
  5222 ;;		 -> STR_9(6), STR_8(17), STR_7(8), STR_6(13), 
  5223 ;;		 -> STR_5(8), STR_4(8), STR_3(15), STR_2(12), 
  5224 ;;		 -> STR_1(13), 
  5225 ;; Return value:  Size  Location     Type
  5226 ;;                  1    wreg      void 
  5227 ;; Registers used:
  5228 ;;		wreg, fsr0l, fsr0h, status,2, status,0, pclath, cstack
  5229 ;; Tracked objects:
  5230 ;;		On entry : 0/0
  5231 ;;		On exit  : 0/0
  5232 ;;		Unchanged: 0/0
  5233 ;; Data sizes:     COMMON   BANK0   BANK1   BANK3   BANK2
  5234 ;;      Params:         1       0       0       0       0
  5235 ;;      Locals:         0       1       0       0       0
  5236 ;;      Temps:          0       1       0       0       0
  5237 ;;      Totals:         1       2       0       0       0
  5238 ;;Total ram usage:        3 bytes
  5239 ;; Hardware stack levels used: 1
  5240 ;; Hardware stack levels required when called: 2
  5241 ;; This function calls:
  5242 ;;		_clcd_write
  5243 ;; This function is called by:
  5244 ;;		_main
  5245 ;;		_display_power_screen
  5246 ;;		_display_modes
  5247 ;;		_set_time
  5248 ;;		_set_temp
  5249 ;;		_display_time
  5250 ;; This function uses a non-reentrant model
  5251 ;;
  5252                           
  5253  0DA2                     _clcd_print:	
  5254                           ;psect for function _clcd_print
  5255                           
  5256                           
  5257                           ;incstack = 0
  5258                           ; Regs used in _clcd_print: [wreg-fsr0h+status,2+status,0+pclath+cstack]
  5259                           ;clcd_print@str stored from wreg
  5260  0DA2  1283               	bcf	3,5	;RP0=0, select bank0
  5261  0DA3  1303               	bcf	3,6	;RP1=0, select bank0
  5262  0DA4  00A1               	movwf	clcd_print@str
  5263  0DA5                     l2404:
  5264                           
  5265                           ;clcd.c: 62: void clcd_print(const char *str, unsigned char addr);clcd.c: 63: {;clcd.c: 
      +                          64:     clcd_write(addr, 0);
  5266  0DA5  01F3               	clrf	clcd_write@mode
  5267  0DA6  0877               	movf	clcd_print@addr,w
  5268  0DA7  120A  158A  2601  120A  158A  	fcall	_clcd_write
  5269                           
  5270                           ;clcd.c: 66:     while (*str != '\0')
  5271  0DAC  2DC1               	goto	l2410
  5272  0DAD                     l2406:
  5273                           
  5274                           ;clcd.c: 67:     {;clcd.c: 68:         clcd_write(*str, 1);
  5275  0DAD  01F3               	clrf	clcd_write@mode
  5276  0DAE  0AF3               	incf	clcd_write@mode,f
  5277  0DAF  0821               	movf	clcd_print@str,w
  5278  0DB0  0084               	movwf	4
  5279  0DB1  120A  118A  2600  120A  158A  	fcall	stringdir
  5280  0DB6  120A  158A  2601  120A  158A  	fcall	_clcd_write
  5281  0DBB                     l2408:
  5282                           
  5283                           ;clcd.c: 69:         str++;
  5284  0DBB  3001               	movlw	1
  5285  0DBC  1283               	bcf	3,5	;RP0=0, select bank0
  5286  0DBD  1303               	bcf	3,6	;RP1=0, select bank0
  5287  0DBE  00A0               	movwf	??_clcd_print
  5288  0DBF  0820               	movf	??_clcd_print,w
  5289  0DC0  07A1               	addwf	clcd_print@str,f
  5290  0DC1                     l2410:
  5291                           
  5292                           ;clcd.c: 66:     while (*str != '\0')
  5293  0DC1  1283               	bcf	3,5	;RP0=0, select bank0
  5294  0DC2  1303               	bcf	3,6	;RP1=0, select bank0
  5295  0DC3  0821               	movf	clcd_print@str,w
  5296  0DC4  0084               	movwf	4
  5297  0DC5  120A  118A  2600  120A  158A  	fcall	stringdir
  5298  0DCA  3A00               	xorlw	0
  5299  0DCB  1D03               	skipz
  5300  0DCC  2DCE               	goto	u2181
  5301  0DCD  2DCF               	goto	u2180
  5302  0DCE                     u2181:
  5303  0DCE  2DAD               	goto	l2406
  5304  0DCF                     u2180:
  5305  0DCF                     l32:
  5306  0DCF  0008               	return
  5307  0DD0                     __end_of_clcd_print:
  5308                           
  5309                           	psect	text23
  5310  0E01                     __ptext23:	
  5311 ;; *************** function _clcd_write *****************
  5312 ;; Defined at:
  5313 ;;		line 4 in file "clcd.c"
  5314 ;; Parameters:    Size  Location     Type
  5315 ;;  byte            1    wreg     unsigned char 
  5316 ;;  mode            1    3[COMMON] unsigned char 
  5317 ;; Auto vars:     Size  Location     Type
  5318 ;;  byte            1    6[COMMON] unsigned char 
  5319 ;; Return value:  Size  Location     Type
  5320 ;;                  1    wreg      void 
  5321 ;; Registers used:
  5322 ;;		wreg, status,2, status,0
  5323 ;; Tracked objects:
  5324 ;;		On entry : 0/0
  5325 ;;		On exit  : 0/0
  5326 ;;		Unchanged: 0/0
  5327 ;; Data sizes:     COMMON   BANK0   BANK1   BANK3   BANK2
  5328 ;;      Params:         1       0       0       0       0
  5329 ;;      Locals:         1       0       0       0       0
  5330 ;;      Temps:          2       0       0       0       0
  5331 ;;      Totals:         4       0       0       0       0
  5332 ;;Total ram usage:        4 bytes
  5333 ;; Hardware stack levels used: 1
  5334 ;; Hardware stack levels required when called: 1
  5335 ;; This function calls:
  5336 ;;		Nothing
  5337 ;; This function is called by:
  5338 ;;		_init_display_controller
  5339 ;;		_clcd_putch
  5340 ;;		_clcd_print
  5341 ;;		_clear_screen
  5342 ;; This function uses a non-reentrant model
  5343 ;;
  5344                           
  5345  0E01                     _clcd_write:	
  5346                           ;psect for function _clcd_write
  5347                           
  5348                           
  5349                           ;incstack = 0
  5350                           ; Regs used in _clcd_write: [wreg+status,2+status,0]
  5351                           ;clcd_write@byte stored from wreg
  5352  0E01  00F6               	movwf	clcd_write@byte
  5353  0E02                     l2350:
  5354                           
  5355                           ;clcd.c: 4: static void clcd_write(unsigned char byte, unsigned char mode);clcd.c: 5: {;
      +                          clcd.c: 6:     RE2 = (__bit)mode;
  5356  0E02  1873               	btfsc	clcd_write@mode,0
  5357  0E03  2E05               	goto	u2151
  5358  0E04  2E09               	goto	u2150
  5359  0E05                     u2151:
  5360  0E05  1283               	bcf	3,5	;RP0=0, select bank0
  5361  0E06  1303               	bcf	3,6	;RP1=0, select bank0
  5362  0E07  1509               	bsf	9,2	;volatile
  5363  0E08  2E0C               	goto	u2164
  5364  0E09                     u2150:
  5365  0E09  1283               	bcf	3,5	;RP0=0, select bank0
  5366  0E0A  1303               	bcf	3,6	;RP1=0, select bank0
  5367  0E0B  1109               	bcf	9,2	;volatile
  5368  0E0C                     u2164:
  5369  0E0C                     l2352:
  5370                           
  5371                           ;clcd.c: 8:     PORTD = byte & 0xF0;
  5372  0E0C  0876               	movf	clcd_write@byte,w
  5373  0E0D  39F0               	andlw	240
  5374  0E0E  0088               	movwf	8	;volatile
  5375  0E0F                     l2354:
  5376                           
  5377                           ;clcd.c: 9:     RE1 = 1;
  5378  0E0F  1489               	bsf	9,1	;volatile
  5379  0E10                     l2356:
  5380                           
  5381                           ;clcd.c: 10:     _delay((unsigned long)((100)*(20000000/4000000.0)));
  5382  0E10  30A6               	movlw	166
  5383  0E11  00F4               	movwf	??_clcd_write
  5384  0E12                     u2987:
  5385  0E12  0BF4               	decfsz	??_clcd_write,f
  5386  0E13  2E12               	goto	u2987
  5387  0E14  0000               	nop
  5388  0E15                     l2358:
  5389                           
  5390                           ;clcd.c: 11:     RE1 = 0;
  5391  0E15  1283               	bcf	3,5	;RP0=0, select bank0
  5392  0E16  1303               	bcf	3,6	;RP1=0, select bank0
  5393  0E17  1089               	bcf	9,1	;volatile
  5394  0E18                     l2360:
  5395                           
  5396                           ;clcd.c: 13:     PORTD = (unsigned char)((byte & 0x0F) << 4);
  5397  0E18  0876               	movf	clcd_write@byte,w
  5398  0E19  390F               	andlw	15
  5399  0E1A  00F4               	movwf	??_clcd_write
  5400  0E1B  3003               	movlw	3
  5401  0E1C                     u2175:
  5402  0E1C  1003               	clrc
  5403  0E1D  0DF4               	rlf	??_clcd_write,f
  5404  0E1E  3EFF               	addlw	-1
  5405  0E1F  1D03               	skipz
  5406  0E20  2E1C               	goto	u2175
  5407  0E21  1003               	clrc
  5408  0E22  0D74               	rlf	??_clcd_write,w
  5409  0E23  0088               	movwf	8	;volatile
  5410  0E24                     l2362:
  5411                           
  5412                           ;clcd.c: 14:     RE1 = 1;
  5413  0E24  1489               	bsf	9,1	;volatile
  5414  0E25                     l2364:
  5415                           
  5416                           ;clcd.c: 15:     _delay((unsigned long)((100)*(20000000/4000000.0)));
  5417  0E25  30A6               	movlw	166
  5418  0E26  00F4               	movwf	??_clcd_write
  5419  0E27                     u2997:
  5420  0E27  0BF4               	decfsz	??_clcd_write,f
  5421  0E28  2E27               	goto	u2997
  5422  0E29  0000               	nop
  5423  0E2A                     l2366:
  5424                           
  5425                           ;clcd.c: 16:     RE1 = 0;
  5426  0E2A  1283               	bcf	3,5	;RP0=0, select bank0
  5427  0E2B  1303               	bcf	3,6	;RP1=0, select bank0
  5428  0E2C  1089               	bcf	9,1	;volatile
  5429  0E2D                     l2368:
  5430                           
  5431                           ;clcd.c: 18:     _delay((unsigned long)((4100)*(20000000/4000000.0)));
  5432  0E2D  301B               	movlw	27
  5433  0E2E  00F5               	movwf	??_clcd_write+1
  5434  0E2F  309E               	movlw	158
  5435  0E30  00F4               	movwf	??_clcd_write
  5436  0E31                     u3007:
  5437  0E31  0BF4               	decfsz	??_clcd_write,f
  5438  0E32  2E31               	goto	u3007
  5439  0E33  0BF5               	decfsz	??_clcd_write+1,f
  5440  0E34  2E31               	goto	u3007
  5441  0E35  0000               	nop
  5442  0E36                     l17:
  5443  0E36  0008               	return
  5444  0E37                     __end_of_clcd_write:
  5445                           
  5446                           	psect	text24
  5447  0E73                     __ptext24:	
  5448 ;; *************** function _isr *****************
  5449 ;; Defined at:
  5450 ;;		line 4 in file "isr.c"
  5451 ;; Parameters:    Size  Location     Type
  5452 ;;		None
  5453 ;; Auto vars:     Size  Location     Type
  5454 ;;		None
  5455 ;; Return value:  Size  Location     Type
  5456 ;;                  1    wreg      void 
  5457 ;; Registers used:
  5458 ;;		wreg, status,2, status,0
  5459 ;; Tracked objects:
  5460 ;;		On entry : 0/0
  5461 ;;		On exit  : 0/0
  5462 ;;		Unchanged: 0/0
  5463 ;; Data sizes:     COMMON   BANK0   BANK1   BANK3   BANK2
  5464 ;;      Params:         0       0       0       0       0
  5465 ;;      Locals:         0       0       0       0       0
  5466 ;;      Temps:          3       0       0       0       0
  5467 ;;      Totals:         3       0       0       0       0
  5468 ;;Total ram usage:        3 bytes
  5469 ;; Hardware stack levels used: 1
  5470 ;; This function calls:
  5471 ;;		Nothing
  5472 ;; This function is called by:
  5473 ;;		Interrupt level 1
  5474 ;; This function uses a non-reentrant model
  5475 ;;
  5476                           
  5477  0E73                     _isr:	
  5478                           ;psect for function _isr
  5479                           
  5480  0E73                     i1l2298:
  5481                           
  5482                           ;isr.c: 6:     static unsigned int count = 0;;isr.c: 8:     if (TMR2IF == 1)
  5483  0E73  1283               	bcf	3,5	;RP0=0, select bank0
  5484  0E74  1303               	bcf	3,6	;RP1=0, select bank0
  5485  0E75  1C8C               	btfss	12,1	;volatile
  5486  0E76  2E78               	goto	u209_21
  5487  0E77  2E79               	goto	u209_20
  5488  0E78                     u209_21:
  5489  0E78  2EA9               	goto	i1l302
  5490  0E79                     u209_20:
  5491  0E79                     i1l2300:
  5492                           
  5493                           ;isr.c: 9:     {;isr.c: 10:         if (++count == 20000)
  5494  0E79  3001               	movlw	1
  5495  0E7A  07F8               	addwf	isr@count,f
  5496  0E7B  1803               	skipnc
  5497  0E7C  0AF9               	incf	isr@count+1,f
  5498  0E7D  3000               	movlw	0
  5499  0E7E  07F9               	addwf	isr@count+1,f
  5500  0E7F  3020               	movlw	32
  5501  0E80  0678               	xorwf	isr@count,w
  5502  0E81  304E               	movlw	78
  5503  0E82  1903               	skipnz
  5504  0E83  0679               	xorwf	isr@count+1,w
  5505  0E84  1D03               	btfss	3,2
  5506  0E85  2E87               	goto	u210_21
  5507  0E86  2E88               	goto	u210_20
  5508  0E87                     u210_21:
  5509  0E87  2EA8               	goto	i1l2318
  5510  0E88                     u210_20:
  5511  0E88                     i1l2302:
  5512                           
  5513                           ;isr.c: 11:         {;isr.c: 12:             count = 0;
  5514  0E88  01F8               	clrf	isr@count
  5515  0E89  01F9               	clrf	isr@count+1
  5516  0E8A                     i1l2304:
  5517                           
  5518                           ;isr.c: 13:             if(sec>0)
  5519  0E8A  0842               	movf	_sec,w
  5520  0E8B  1903               	btfsc	3,2
  5521  0E8C  2E8E               	goto	u211_21
  5522  0E8D  2E8F               	goto	u211_20
  5523  0E8E                     u211_21:
  5524  0E8E  2E91               	goto	i1l298
  5525  0E8F                     u211_20:
  5526  0E8F                     i1l2306:
  5527                           
  5528                           ;isr.c: 14:             {;isr.c: 15:                 sec--;
  5529  0E8F  3001               	movlw	1
  5530  0E90  02C2               	subwf	_sec,f
  5531  0E91                     i1l298:	
  5532                           ;isr.c: 16:             }
  5533                           
  5534                           
  5535                           ;isr.c: 17:             if(sec == 0)
  5536  0E91  0842               	movf	_sec,w
  5537  0E92  1D03               	btfss	3,2
  5538  0E93  2E95               	goto	u212_21
  5539  0E94  2E96               	goto	u212_20
  5540  0E95                     u212_21:
  5541  0E95  2EA1               	goto	i1l2314
  5542  0E96                     u212_20:
  5543  0E96                     i1l2308:
  5544                           
  5545                           ;isr.c: 18:             {;isr.c: 19:                 if(min > 0)
  5546  0E96  0841               	movf	_min,w
  5547  0E97  1903               	btfsc	3,2
  5548  0E98  2E9A               	goto	u213_21
  5549  0E99  2E9B               	goto	u213_20
  5550  0E9A                     u213_21:
  5551  0E9A  2EA1               	goto	i1l2314
  5552  0E9B                     u213_20:
  5553  0E9B                     i1l2310:
  5554                           
  5555                           ;isr.c: 20:                 {;isr.c: 21:                     min--;
  5556  0E9B  3001               	movlw	1
  5557  0E9C  02C1               	subwf	_min,f
  5558  0E9D                     i1l2312:
  5559                           
  5560                           ;isr.c: 22:                     sec= 60;
  5561  0E9D  303C               	movlw	60
  5562  0E9E  00F0               	movwf	??_isr
  5563  0E9F  0870               	movf	??_isr,w
  5564  0EA0  00C2               	movwf	_sec
  5565  0EA1                     i1l2314:
  5566                           
  5567                           ;isr.c: 25:             if(pre_heat > 0)
  5568  0EA1  0840               	movf	_pre_heat,w
  5569  0EA2  1903               	btfsc	3,2
  5570  0EA3  2EA5               	goto	u214_21
  5571  0EA4  2EA6               	goto	u214_20
  5572  0EA5                     u214_21:
  5573  0EA5  2EA8               	goto	i1l2318
  5574  0EA6                     u214_20:
  5575  0EA6                     i1l2316:
  5576                           
  5577                           ;isr.c: 26:             {;isr.c: 27:                 pre_heat--;
  5578  0EA6  3001               	movlw	1
  5579  0EA7  02C0               	subwf	_pre_heat,f
  5580  0EA8                     i1l2318:
  5581                           
  5582                           ;isr.c: 31:         TMR2IF = 0;
  5583  0EA8  108C               	bcf	12,1	;volatile
  5584  0EA9                     i1l302:
  5585  0EA9  0872               	movf	??_isr+2,w
  5586  0EAA  008A               	movwf	10
  5587  0EAB  0E71               	swapf	??_isr+1,w
  5588  0EAC  0083               	movwf	3
  5589  0EAD  0EFE               	swapf	btemp,f
  5590  0EAE  0E7E               	swapf	btemp,w
  5591  0EAF  0009               	retfie
  5592  0EB0                     __end_of_isr:
  5593  007E                     btemp	set	126	;btemp
  5594  007E                     wtemp0	set	126
  5595                           
  5596                           	psect	intentry
  5597  0004                     __pintentry:	
  5598                           ;incstack = 0
  5599                           ; Regs used in _isr: [wreg+status,2+status,0]
  5600                           
  5601  0004                     interrupt_function:
  5602  007E                     saved_w	set	btemp
  5603  0004  00FE               	movwf	btemp
  5604  0005  0E03               	swapf	3,w
  5605  0006  00F1               	movwf	??_isr+1
  5606  0007  080A               	movf	10,w
  5607  0008  00F2               	movwf	??_isr+2
  5608  0009  120A  158A  2E73   	ljmp	_isr
  5609                           
  5610                           	psect	config
  5611                           
  5612                           ;Config register CONFIG @ 0x2007
  5613                           ;	Oscillator Selection bits
  5614                           ;	FOSC = 0x3, unprogrammed default
  5615                           ;	Watchdog Timer Enable bit
  5616                           ;	WDTE = OFF, WDT disabled
  5617                           ;	Power-up Timer Enable bit
  5618                           ;	PWRTE = 0x1, unprogrammed default
  5619                           ;	Brown-out Reset Enable bit
  5620                           ;	BOREN = 0x1, unprogrammed default
  5621                           ;	Low-Voltage (Single-Supply) In-Circuit Serial Programming Enable bit
  5622                           ;	LVP = 0x1, unprogrammed default
  5623                           ;	Data EEPROM Memory Code Protection bit
  5624                           ;	CPD = 0x1, unprogrammed default
  5625                           ;	Flash Program Memory Write Enable bits
  5626                           ;	WRT = 0x3, unprogrammed default
  5627                           ;	In-Circuit Debugger Mode bit
  5628                           ;	DEBUG = 0x1, unprogrammed default
  5629                           ;	Flash Program Memory Code Protection bit
  5630                           ;	CP = 0x1, unprogrammed default
  5631  2007                     	org	8199
  5632  2007  3FFB               	dw	16379

Data Sizes:
    Strings     223
    Constant    0
    Data        2
    BSS         14
    Persistent  0
    Stack       0

Auto Spaces:
    Space          Size  Autos    Used
    COMMON           14      8      11
    BANK0            80     23      36
    BANK1            80      0       0
    BANK3            96      0       0
    BANK2            96      0       0

Pointer List with Targets:

    clcd_print@str	PTR const unsigned char  size(1) Largest target is 17
		 -> STR_21(CODE[16]), STR_20(CODE[11]), STR_19(CODE[7]), STR_18(CODE[8]), 
		 -> STR_17(CODE[15]), STR_16(CODE[8]), STR_15(CODE[10]), STR_14(CODE[12]), 
		 -> STR_13(CODE[16]), STR_12(CODE[6]), STR_11(CODE[14]), STR_10(CODE[16]), 
		 -> STR_9(CODE[6]), STR_8(CODE[17]), STR_7(CODE[8]), STR_6(CODE[13]), 
		 -> STR_5(CODE[8]), STR_4(CODE[8]), STR_3(CODE[15]), STR_2(CODE[12]), 
		 -> STR_1(CODE[13]), 


Critical Paths under _main in COMMON

    _main->_clcd_print
    _main->_read_matrix_keypad
    _set_time->___awdiv
    _set_time->_clcd_print
    _set_temp->___awdiv
    _set_temp->___lwdiv
    _set_temp->_clcd_print
    ___lwmod->___lwdiv
    _read_matrix_keypad->_scan_keypad
    _init_display_controller->_clcd_write
    _display_time->___awdiv
    _display_time->_clcd_print
    _clear_screen->_clcd_write
    ___awmod->___awdiv
    _display_power_screen->_clcd_print
    _clcd_putch->___awdiv
    _clcd_putch->___lwdiv
    _display_modes->_clcd_print
    _clcd_print->_clcd_write

Critical Paths under _isr in COMMON

    None.

Critical Paths under _main in BANK0

    _main->_display_power_screen
    _main->_set_temp
    _main->_set_time
    _set_time->_clcd_putch
    _set_temp->_clcd_putch
    ___lwmod->___lwdiv
    _init_clcd->_init_display_controller
    _display_time->_clcd_putch
    ___awmod->___awdiv
    _display_power_screen->_clcd_putch
    _clcd_putch->___awmod
    _display_modes->_clcd_print

Critical Paths under _isr in BANK0

    None.

Critical Paths under _main in BANK1

    None.

Critical Paths under _isr in BANK1

    None.

Critical Paths under _main in BANK3

    None.

Critical Paths under _isr in BANK3

    None.

Critical Paths under _main in BANK2

    None.

Critical Paths under _isr in BANK2

    None.

Call Graph Tables:

 ---------------------------------------------------------------------------------
 (Depth) Function   	        Calls       Base Space   Used Autos Params    Refs
 ---------------------------------------------------------------------------------
 (0) _main                                                 5     5      0   51019
                                             18 BANK0      5     5      0
                         _clcd_print
                       _clear_screen
                      _display_modes
               _display_power_screen
                       _display_time
                          _heat_food
                        _init_config
                 _read_matrix_keypad
                           _set_temp
                           _set_time
 ---------------------------------------------------------------------------------
 (1) _set_time                                             5     4      1   10541
                                             13 BANK0      5     4      1
                            ___awdiv
                            ___awmod
                             ___bmul
                         _clcd_print
                         _clcd_putch
                       _clear_screen
 ---------------------------------------------------------------------------------
 (2) ___bmul                                               4     3      1      10
                                              3 COMMON     4     3      1
 ---------------------------------------------------------------------------------
 (1) _set_temp                                             5     4      1   11793
                                             13 BANK0      5     4      1
                            ___awdiv
                            ___awmod
                            ___lwdiv
                            ___lwmod
                             ___wmul
                         _clcd_print
                         _clcd_putch
                       _clear_screen
 ---------------------------------------------------------------------------------
 (2) ___wmul                                               6     2      4     316
                                              3 COMMON     4     0      4
                                              0 BANK0      2     2      0
 ---------------------------------------------------------------------------------
 (2) ___lwmod                                              6     2      4     463
                                              3 BANK0      6     2      4
                            ___lwdiv (ARG)
 ---------------------------------------------------------------------------------
 (2) ___lwdiv                                              8     4      4     601
                                              3 COMMON     5     1      4
                                              0 BANK0      3     3      0
 ---------------------------------------------------------------------------------
 (1) _read_matrix_keypad                                   3     3      0     272
                                              5 COMMON     3     3      0
                        _scan_keypad
 ---------------------------------------------------------------------------------
 (2) _scan_keypad                                          2     2      0     161
                                              3 COMMON     2     2      0
 ---------------------------------------------------------------------------------
 (1) _init_config                                          0     0      0    1173
                          _init_clcd
                 _init_matrix_keypad
                        _init_timer2
 ---------------------------------------------------------------------------------
 (2) _init_timer2                                          0     0      0       0
 ---------------------------------------------------------------------------------
 (2) _init_matrix_keypad                                   0     0      0       0
 ---------------------------------------------------------------------------------
 (2) _init_clcd                                            0     0      0    1173
            _init_display_controller
 ---------------------------------------------------------------------------------
 (3) _init_display_controller                              2     2      0    1173
                                              0 BANK0      2     2      0
                         _clcd_write
 ---------------------------------------------------------------------------------
 (1) _heat_food                                            1     1      0       0
                                              3 COMMON     1     1      0
 ---------------------------------------------------------------------------------
 (1) _display_time                                         3     3      0   10100
                                             13 BANK0      3     3      0
                            ___awdiv
                            ___awmod
                         _clcd_print
                         _clcd_putch
                       _clear_screen
 ---------------------------------------------------------------------------------
 (2) _clear_screen                                         2     2      0    1173
                                              0 BANK0      2     2      0
                         _clcd_write
 ---------------------------------------------------------------------------------
 (2) ___awmod                                              7     3      4     825
                                              4 BANK0      7     3      4
                            ___awdiv (ARG)
 ---------------------------------------------------------------------------------
 (2) ___awdiv                                              9     5      4     612
                                              3 COMMON     5     1      4
                                              0 BANK0      4     4      0
 ---------------------------------------------------------------------------------
 (1) _display_power_screen                                 5     5      0    7688
                                             13 BANK0      5     5      0
                         _clcd_print
                         _clcd_putch
 ---------------------------------------------------------------------------------
 (2) _clcd_putch                                           2     1      1    3575
                                             11 BANK0      2     1      1
                            ___awdiv (ARG)
                            ___awmod (ARG)
                            ___lwdiv (ARG)
                            ___lwmod (ARG)
                         _clcd_write
 ---------------------------------------------------------------------------------
 (1) _display_modes                                        1     1      0    3915
                                              2 BANK0      1     1      0
                         _clcd_print
 ---------------------------------------------------------------------------------
 (2) _clcd_print                                           3     2      1    3915
                                              7 COMMON     1     0      1
                                              0 BANK0      2     2      0
                         _clcd_write
 ---------------------------------------------------------------------------------
 (3) _clcd_write                                           4     3      1    1173
                                              3 COMMON     4     3      1
 ---------------------------------------------------------------------------------
 Estimated maximum stack depth 3
 ---------------------------------------------------------------------------------
 (Depth) Function   	        Calls       Base Space   Used Autos Params    Refs
 ---------------------------------------------------------------------------------
 (5) _isr                                                  3     3      0       0
                                              0 COMMON     3     3      0
 ---------------------------------------------------------------------------------
 Estimated maximum stack depth 5
 ---------------------------------------------------------------------------------

 Call Graph Graphs:

 _main (ROOT)
   _clcd_print
     _clcd_write
   _clear_screen
     _clcd_write
   _display_modes
     _clcd_print
   _display_power_screen
     _clcd_print
     _clcd_putch
       ___awdiv (ARG)
       ___awmod (ARG)
         ___awdiv (ARG)
       ___lwdiv (ARG)
       ___lwmod (ARG)
         ___lwdiv (ARG)
       _clcd_write (ARG)
   _display_time
     ___awdiv
     ___awmod
     _clcd_print
     _clcd_putch
     _clear_screen
   _heat_food
   _init_config
     _init_clcd
       _init_display_controller
         _clcd_write
     _init_matrix_keypad
     _init_timer2
   _read_matrix_keypad
     _scan_keypad
   _set_temp
     ___awdiv
     ___awmod
     ___lwdiv
     ___lwmod
     ___wmul
     _clcd_print
     _clcd_putch
     _clear_screen
   _set_time
     ___awdiv
     ___awmod
     ___bmul
     _clcd_print
     _clcd_putch
     _clear_screen

 _isr (ROOT)

 Address spaces:
Name               Size   Autos  Total    Cost      Usage
BANK3               60      0       0       9        0.0%
BITBANK3            60      0       0       8        0.0%
SFR3                 0      0       0       4        0.0%
BITSFR3              0      0       0       4        0.0%
BANK2               60      0       0      11        0.0%
BITBANK2            60      0       0      10        0.0%
SFR2                 0      0       0       5        0.0%
BITSFR2              0      0       0       5        0.0%
BANK1               50      0       0       7        0.0%
BITBANK1            50      0       0       6        0.0%
SFR1                 0      0       0       2        0.0%
BITSFR1              0      0       0       2        0.0%
BANK0               50     17      24       5       45.0%
BITBANK0            50      0       0       4        0.0%
SFR0                 0      0       0       1        0.0%
BITSFR0              0      0       0       1        0.0%
COMMON               E      8       B       1       78.6%
BITCOMMON            E      0       0       0        0.0%
CODE                 0      0       0       0        0.0%
DATA                 0      0      2F      12        0.0%
ABS                  0      0      2F       3        0.0%
NULL                 0      0       0       0        0.0%
STACK                0      0       0       2        0.0%
EEDATA             100      0       0       0        0.0%


Microchip Technology PIC Macro Assembler V2.36 build 20220127204148 
Symbol Table                                                                                   Wed Jan 14 21:30:31 2026

                              pc 0002                   ___bmul@product 0075                   clcd_print@addr 0077  
                             l20 0F89                               l23 0CF7                               l32 0DCF  
                             l17 0E36                               l26 0D3C                               l35 0D27  
                             l80 0D51                               l96 0402                               l88 03E1  
                   ___awdiv@sign 0021                               fsr 0004              ___wmul@multiplicand 0075  
             _init_matrix_keypad 0D06                              l113 046F                              l114 0472  
                            l220 0FFF                              l140 0D15                              l223 0E00  
                            l160 075B                              l161 0763                              l153 072C  
                            l145 06FD                              l170 0798                              l162 076F  
                            l154 0734                              l146 0705                              l163 0769  
                            l155 0740                              l147 079F                              l251 0368  
                            l156 073A                              l148 0711                              l149 070B  
                            l414 05F9                              l191 0CEC                              l167 078A  
                            l271 0161                              l168 0792                              l281 0D05  
                            l178 0D76                              l274 01F4                              l541 0F18  
                            l278 059E                              l390 0DA1                              l554 07FA  
                            l660 05E4                              l388 0D87                              l670 0E72  
                            _GIE 005F                              _RB0 0030                              _RB1 0031  
                            _RB2 0032                              _RC2 003A                              _RD0 0040  
                            _RD1 0041                              _RD2 0042                              _RE1 0049  
                            _RD3 0043                              _RE2 004A                              _PR2 0092  
                  ?_display_time 0070                              _min 0041                              _sec 0042  
                            _isr 0E73                   clcd_putch@addr 002B                              fsr0 0004  
                 clcd_putch@data 002C                     ___awmod@sign 002A              ?_init_matrix_keypad 0070  
                           l2200 0D01                             l2400 0CF2                             l2410 0DC1  
                           l2402 0D2B                             l2404 0DA5                             l2412 0D16  
                           l1700 0CE9                             l2500 05D3                             l2420 0D7F  
                           l2350 0E02                             l2406 0DAD                             l2414 0D1D  
                           l2510 0D4C                             l1702 06E5                             l2502 05DA  
                           l2422 0D8E                             l2430 05E6                             l2360 0E18  
                           l2352 0E0C                             l2408 0DBB                             l2192 0CF8  
                           l2512 0D4F                             l1720 070F                             l1704 06EB  
                           l2504 05E0                             l2424 0D95                             l2416 0D77  
                           l2440 05F8                             l2432 05E7                             l2600 02A0  
                           l2362 0E24                             l2354 0E0F                             l2530 0FB2  
                           l2522 0F8D                             l2450 07AC                             l2194 0CFE  
                           l2370 0F19                             l2514 0D50                             l1802 079E  
                           l1730 0719                             l1714 0709                             l1706 06EF  
                           l2426 0D9B                             l2418 0D7B                             l2434 05EB  
                           l2610 02BA                             l2602 02A1                             l2364 0E25  
                           l2356 0E10                             l2540 0FD6                             l2532 0FC8  
                           l2524 0F98                             l2516 0F8A                             l1820 0EB0  
                           l2460 07C0                             l2452 07AE                             l2444 07A0  
                           l2620 04A6                             l2196 0CFF                             l2380 0F4B  
                           l2372 0F24                             l2508 0D3D                             l1740 0738  
                           l1732 071F                             l1724 0715                             l1708 0703  
                           l2700 00CF                             l2436 05EF                             l2612 02BF  
                           l2604 02A5                             l2366 0E2A                             l2358 0E15  
                           l2542 0FE4                             l2526 0FA6                             l1830 0EC2  
                           l1822 0EB3                             l2470 07DF                             l2462 07C7  
                           l2454 07B2                             l2446 07A3                             l2630 0517  
                           l2622 04B2                             l2198 0D00                             l2390 0F7B  
                           l2382 0F4E                             l2374 0F2B                             l1750 0744  
                           l1734 0732                             l2710 0167                             l2702 00D9  
                           l2438 05F1                             l2614 02C4                             l2606 02AF  
                           l2550 01F8                             l2368 0E2D                             l2544 0FEA  
                           l2528 0FAC                             l1840 0ED6                             l1832 0EC7  
                           l1824 0EB7                             l2472 07E6                             l2464 07CB  
                           l2456 07B7                             l2448 07A7                             l2640 0561  
                           l2632 0536                             l2624 04CF                             l2392 0F82  
                           l2384 0F55                             l2376 0F3D                             l1760 0761  
                           l2712 016D                             l2704 00F2                             l2616 02DB  
                           l2608 02B0                             l2560 0225                             l2552 01FE  
                           l2720 0369                             l2546 0FF0                             l2538 0FCB  
                           l1850 0EFC                             l1842 0EDD                             l1834 0ECB  
                           l1826 0EBC                             l2466 07CF                             l2458 07BD  
                           l2474 07EC                             l2650 0579                             l2642 0566  
                           l2634 0542                             l2626 04EE                             l2386 0F63  
                           l2378 0F44                             l2394 0CED                             l1690 0D12  
                           l1746 073E                             l2490 05B3                             l2482 059F  
                           l1930 0E3F                             l2706 015A                             l2714 016D  
                           l2618 02F2                             l2570 0248                             l2562 0231  
                           l2554 0203                             l2730 0388                             l2722 036E  
                           l2548 0DD0                             l1860 0F14                             l1852 0EFD  
                           l1844 0EE1                             l1836 0ECD                             l1828 0EBE  
                           l2476 07F1                             l2468 07D9                             l2652 0585  
                           l2644 056B                             l2636 054E                             l2628 04FA  
                           l2388 0F6A                             l2396 0CF0                             l1692 0D13  
                           l1684 0D06                             l1772 076D                             l1756 0748  
                           l2492 05B7                             l2484 05A3                             l1940 0E5B  
                           l1932 0E42                             l2716 0172                             l2708 0162  
                           l2660 003A                             l2580 0276                             l2572 024E  
                           l2564 0239                             l2556 020D                             l2732 038D  
                           l2740 03B3                             l2724 0379                             l1854 0F04  
                           l1846 0EE5                             l1838 0ED3                             l2478 07F6  
                           l2654 0593                             l2646 056E                             l2638 055A  
                           l2398 0CF1                             l1694 0D14                             l1686 0D0E  
                           l1782 0777                             l1766 0767                             l1758 074E  
                           l2494 05BB                             l2486 05A9                             l1942 0E61  
                           l1934 0E49                             l2718 0195                             l2670 0065  
                           l2662 0044                             l2590 028C                             l2574 025E  
                           l2566 023F                             l2582 0279                             l2558 0219  
                           l2742 03B9                             l2806 0475                             l2734 0399  
                           l2726 037F                             l1848 0EF6                             l1856 0F0A  
                           l2648 056F                             l1688 0D0F                             l1696 0CE4  
                           l1792 0796                             l1784 077D                             l1776 0773  
                           l1960 0D5B                             l2496 05CC                             l2488 05AC  
                           l1944 0E68                             l1936 0E4D                             l1928 0E37  
                           l2680 0088                             l2672 0071                             l2664 0045  
                           l2656 0030                             l2592 028D                             l2584 027F  
                           l2576 0260                             l2568 0244                             l2808 049C  
                           l2760 03E8                             l2752 03D6                             l2744 03C1  
                           l2736 03A7                             l2728 0384                             l1858 0F0F  
                           l1698 0CE8                             l1786 0790                             l1970 0D67  
                           l1962 0D60                             l2498 05D2                             l1938 0E51  
                           l1946 0E6E                             l2690 00B6                             l2682 008E  
                           l2674 0079                             l2666 004F                             l2658 0036  
                           l2586 0284                             l2594 0292                             l2578 0266  
                           l2770 040D                             l2762 03EE                             l2754 03DC  
                           l2746 03C7                             l2738 03AC                             l1972 0D6C  
                           l1980 0D6E                             l2692 00BF                             l2676 007F  
                           l2684 00A6                             l2668 0059                             l2596 0298  
                           l2588 0287                             l2780 0426                             l2772 0413  
                           l2764 03F3                             l2748 03CD                             l1798 079C  
                           l1982 0D73                             l1958 0D53                             l2694 00C3  
                           l2686 00AC                             l2678 0084                             l2598 029D  
                           l2846 047F                             l2790 0442                             l2782 042B  
                           l2766 03F9                             l2774 0418                             l2758 03E2  
                           l1984 0D75                             l1968 0D62                             l2696 00C8  
                           l2688 00B0                             l2792 044D                             l2784 0430  
                           l2776 041E                             l2768 0408                             l2698 00CE  
                           l2794 0453                             l2786 0435                             l2778 0424  
                           l2796 045E                             l2788 043C                             l2798 0469  
                           ?_isr 0070                             STR_1 0670                             STR_2 067D  
                           STR_3 0646                             STR_4 06C2                             STR_5 06BA  
                           STR_6 0663                             STR_7 06CA                             STR_8 0606  
                           STR_9 06D9                             u1100 0703                             u1101 0702  
                           u1110 0709                             u1111 0708                             u1200 076D  
                           u1120 070F                             u1201 076C                             u1121 070E  
                           u1210 078A                             u1130 072C                             u1211 0789  
                           u1131 072B                             u1300 0EC2                             u1220 0790  
                           u1140 0732                             u1301 0EC1                             u1221 078F  
                           u1141 0731                             u1310 0ED3                             u1230 0796  
                           u1150 0738                             u1311 0ED2                             u1231 0795  
                           u1215 0786                             u1151 0737                             u1135 0728  
                           u1240 079C                             u1160 073E                             u1241 079B  
                           u1161 073D                             u1330 0EE5                             u1170 075B  
                           u1090 06FD                             u1331 0EE4                             u1171 075A  
                           u1091 06FC                             u2300 07D9                             u1180 0761  
                           u2220 0D9B                             u1325 0ED7                             u2301 07D8  
                           u1181 0760                             u2221 0D9A                             u2205 0D88  
                           u2150 0E09                             u1350 0EF6                             u1190 0767  
                           u2230 05EB                             u3007 0E31                             u2151 0E05  
                           u1351 0EF5                             u1191 0766                             u1175 0757  
                           u2215 0D8F                             u2231 05EA                             u2320 07EC  
                           u2400 05E0                             u1600 0E6E                             u2240 05F8  
                           u1345 0EE6                             u2321 07EB                             u2305 07D5  
                           u2401 05DF                             u1601 0E6D                             u2241 05F7  
                           u2410 0FB2                             u1370 0F0A                             u1290 0EB7  
                           u2330 07F1                             u2250 07A7                             u1610 0D60  
                           u2411 0FB1                             u1371 0F09                             u1355 0EF2  
                           u1291 0EB6                             u2331 07F0                             u2315 07E0  
                           u2251 07A6                             u1611 0D5F                             u2164 0E0C  
                           u2180 0DCF                             u2420 0FF0                             u1380 0F0F  
                           u2260 07B2                             u1620 0D67                             u2340 05A9  
                           u2500 0284                             u2181 0DCE                             u2421 0FEF  
                           u1381 0F0E                             u1365 0EFE                             u2261 07B1  
                           u1621 0D66                             u2341 05A8                             u2501 0283  
                           u2270 07BD                             u1630 0D6C                             u1550 0E3F  
                           u2190 0D7F                             u2510 028C                             u2430 01FE  
                           u2175 0E1C                             u2271 07BC                             u1631 0D6B  
                           u1551 0E3E                             u2191 0D7E                             u2511 028B  
                           u2431 01FD                             u1640 0D73                             u2360 05BB  
                           u2600 0036                             u2520 0298                             u2440 0239  
                           u1641 0D72                             u2361 05BA                             u2601 0035  
                           u2521 0297                             u2441 0238                             u2290 07CF  
                           u1570 0E51                             u2610 0044                             u2530 02AF  
                           u2450 023F                             u2291 07CE                             u2355 05AD  
                           u1571 0E50                             u2611 0043                             u2531 02AE  
                           u2451 023E                             u2380 05CC                             u1580 0E5B  
                           u2700 00BF                             u2620 004B                             u2540 02B6  
                           u2460 0244                             u2285 07C1                             u2381 05CB  
                           u1581 0E5A                             u1565 0E43                             u2701 00BE  
                           u2621 0049                             u2541 02B4                             u2461 0243  
                           u2710 0161                             u2630 004C                             u2550 02B7  
                           u2470 024E                             u2375 05BC                             u2711 0160  
                           u2471 024D                             u2720 0172                             u2640 0079  
                           u2560 02BF                             u2480 0266                             u2800 03F9  
                           u2385 05C8                             u1585 0E57                             u2721 0171  
                           u2641 0078                             u2561 02BE                             u2481 0265  
                           u2801 03F8                             u2650 007F                             u2570 02C4  
                           u2490 027F                             u2810 0408                             u2730 037F  
                           u2395 05D4                             u1595 0E62                             u2651 007E  
                           u2571 02C3                             u2491 027E                             u2811 0407  
                           u2731 037E                             u2580 0561                             u2660 0084  
                           u2820 0413                             u2740 0384                             u2581 0560  
                           u2661 0083                             u2821 0412                             u2741 0383  
                           u2590 0566                             u2670 008E                             u2830 041E  
                           u2750 03B9                             u2591 0565                             u2671 008D  
                           u2831 041D                             u2751 03B8                             u2680 00AC  
                           u2840 0424                             u2760 03CD                             u2681 00AB  
                           u2841 0423                             u2761 03CC                             u2690 00B6  
                           u2770 03DC                             u2907 0F67                             u2691 00B5  
                           u2771 03DB                             _PEIE 005E                             u2780 03E8  
                           u2917 0F77                             u2781 03E7                             u2790 03EE  
                           u2927 0F86                             u2791 03ED                             u2937 058D  
                           u2857 03A1                             u2947 0D23                             u2867 0F1F  
                           u2957 0FA0                             u2877 0F31                             u2967 0FDE  
                           u2887 0F41                             u2977 0FF8                             u2897 0F59  
                           u2987 0E12                             u2997 0E27                   ?_display_modes 0070  
                           _main 0369                             _temp 0037                             btemp 007E  
                           start 000C                ___bmul@multiplier 0076             ??_init_matrix_keypad 0073  
                 clcd_write@byte 0076                   clcd_write@mode 0073                            ??_isr 0070  
           _display_power_screen 0F8A                            ?_main 0070                   ??_display_time 002D  
                __end_of___awdiv 0F19                            STR_10 0617                            STR_11 0655  
                          STR_12 06DF                            STR_20 0695                            STR_13 0617  
                          STR_21 0627                            STR_14 0689                            STR_15 06A0  
                          STR_16 06AA                            STR_17 0637                            STR_18 06B2  
                          STR_19 06D2                  __end_of___awmod 07FB                  ___awdiv@divisor 0073  
                __end_of___lwdiv 05E5                            i1l302 0EA9                  __end_of___lwmod 0E73  
                          i1l298 0E91                     ?_init_config 0070                  ___awdiv@counter 0020  
                          _PORTD 0008                            _TRISB 0086                            _TRISD 0088  
                   ?_init_timer2 0070             __end_of_clear_screen 0D28                            _nRBPU 040F  
             _read_matrix_keypad 0D52                            pclath 000A              ?_read_matrix_keypad 0070  
                          status 0003                            wtemp0 007E                     ?_scan_keypad 0070  
                __initialization 000F                     __end_of_main 04A6            ?_display_power_screen 0070  
           ??_read_matrix_keypad 0075                           ??_main 0032                  ??_display_modes 0022  
               ___awdiv@dividend 0075                           i1l2300 0E79                           i1l2310 0E9B  
                         i1l2302 0E88                           i1l2312 0E9D                           i1l2304 0E8A  
                         i1l2314 0EA1                           i1l2306 0E8F                           i1l2316 0EA6  
                         i1l2308 0E96                           i1l2318 0EA8                           u210_20 0E88  
                         u210_21 0E87                           i1l2298 0E73                           u211_20 0E8F  
                         u211_21 0E8E                           u212_20 0E96                           u212_21 0E95  
                         u213_20 0E9B                           u213_21 0E9A                           u214_20 0EA6  
                         u214_21 0EA5                           u209_20 0E79                           u209_21 0E78  
                         _TMR2IE 0461                           _TMR2IF 0061                           _TMR2ON 0092  
                         _TRISC2 043A                           _TRISE1 0449                           _TRISE2 044A  
                         ___bmul 05E5          _init_display_controller 0F19                           ___wmul 0D77  
                      ??___awdiv 0077                        ??___awmod 0028                        ??___lwdiv 0077  
                      ??___lwmod 0027                 ___awdiv@quotient 0022                  ___awmod@divisor 0024  
                ___awmod@counter 0029                     __pdataCOMMON 007A                 __end_of_set_temp 01F5  
               __end_of_set_time 0369                           saved_w 007E          __end_of__initialization 0029  
           __end_of_display_time 059F              ___bmul@multiplicand 0073                   __pcstackCOMMON 0070  
                   __pidataBANK0 07FC           ??_display_power_screen 002D        display_power_screen@i_154 0031  
                     __pbssBANK0 0037        ??_init_display_controller 0020                       _clcd_print 0DA2  
                     _clcd_putch 0D28                       _clcd_write 0E01                       __pmaintext 0369  
                   _clear_screen 0D16                          ?___bmul 0073                          ?___wmul 0073  
                     __pintentry 0004                       __stringtab 0600                __end_of_heat_food 0D06  
                      ?_set_temp 002D                        ?_set_time 002D                          ___awdiv 0EB0  
                        ___awmod 07A0                          ___lwdiv 059F                          ___lwmod 0E37  
                        __ptext1 01F5                          __ptext2 05E5                          __ptext3 002D  
                        __ptext4 0D77                          __ptext5 0E37                          __ptext6 059F  
                        __ptext7 0D52                          __ptext8 06E5                          __ptext9 0D3D  
__end_of_init_display_controller 0F8A                __end_of_init_clcd 0CF8                 ___awmod@dividend 0026  
                 main@reset_flag 0035                          main@key 0036             end_of_initialization 0029  
                    set_temp@key 0031                      set_time@key 0031                      ?_clcd_print 0077  
                    ?_clcd_putch 002B                      ?_clcd_write 0073            set_temp@display_blank 0039  
                     ??_set_temp 002E                       ??_set_time 002E            display_power_screen@i 0030  
                   _display_time 04A6                    clcd_print@str 0021            __end_of_display_modes 0E01  
             set_temp@reset_flag 002D                   __end_of___bmul 05FA                   __end_of___wmul 0DA2  
                  __pidataCOMMON 07FB              start_initialization 000F                     scan_keypad@i 0073  
         read_matrix_keypad@mode 0076           read_matrix_keypad@once 007A                      __end_of_isr 0EB0  
                       ??___bmul 0074                         ??___wmul 0077                      __pdataBANK0 0043  
                  ??_init_config 0077                    ??_init_timer2 0073                      __pbssCOMMON 0078  
                      ___latbits 0002                    __pcstackBANK0 0020                    ??_scan_keypad 0073  
               ___lwdiv@dividend 0075                         ?___awdiv 0073                         ?___awmod 0024  
                      _heat_food 0CF8                         ?___lwdiv 0073                         ?___lwmod 0023  
                      __pstrings 0600               set_time@reset_flag 002D                 ___lwdiv@quotient 0021  
                      _init_clcd 0CED              __end_of_init_config 0D52              __end_of_init_timer2 0CED  
       ?_init_display_controller 0070                interrupt_function 0004                   ___wmul@product 0020  
                   ??_clcd_print 0020                     ??_clcd_putch 0078       __end_of_init_matrix_keypad 0D16  
                   ??_clcd_write 0074                set_temp@key_count 003B              __end_of_scan_keypad 07A0  
                     ?_heat_food 0070                      __stringbase 0605                ___wmul@multiplier 0073  
             __end_of_clcd_print 0DD0               __end_of_clcd_putch 0D3D               __end_of_clcd_write 0E37  
                     ?_init_clcd 0070            read_matrix_keypad@key 0077                set_time@blink_pos 003F  
                  set_temp@delay 003A                    set_time@delay 003D       __end_of_read_matrix_keypad 0D77  
          set_time@display_blank 003C               __end_of__stringtab 0606                set_time@key_count 003E  
                    _init_config 0D3D                      _init_timer2 0CE4                  ___lwdiv@divisor 0073  
                ___lwdiv@counter 0020                         __ptext10 0CE4                         __ptext11 0D06  
                       __ptext20 0D28                         __ptext12 0CED                         __ptext21 0DD0  
                       __ptext13 0F19                         __ptext22 0DA2                         __ptext14 0CF8  
                       __ptext23 0E01                         __ptext15 04A6                         __ptext24 0E73  
                       __ptext16 0D16                         __ptext17 07A0                         __ptext18 0EB0  
                       __ptext19 0F8A                      _scan_keypad 06E5                         _pre_heat 0040  
                  ?_clear_screen 0070                         _set_temp 002D                         _set_time 01F5  
                    ??_heat_food 0073                         isr@count 0078                      ??_init_clcd 0077  
                       intlevel1 0000     __end_of_display_power_screen 1000                      _screen_flag 0043  
               ___lwmod@dividend 0025                        stringcode 0600                   ??_clear_screen 0020  
                ___lwmod@divisor 0023                  ___lwmod@counter 0028                         stringdir 0600  
                       stringtab 0600                    _display_modes 0DD0  
